
the_pwm_signal.elf:     file format elf32-avr

Sections:
Idx Name          Size      VMA       LMA       File off  Algn
  0 .text         0000008a  00000000  00000000  00000054  2**1
                  CONTENTS, ALLOC, LOAD, READONLY, CODE
  1 .data         00000000  00800060  00800060  000000de  2**0
                  CONTENTS, ALLOC, LOAD, DATA
  2 .comment      00000030  00000000  00000000  000000de  2**0
                  CONTENTS, READONLY
  3 .note.gnu.avr.deviceinfo 0000003c  00000000  00000000  00000110  2**2
                  CONTENTS, READONLY
  4 .debug_aranges 00000020  00000000  00000000  0000014c  2**0
                  CONTENTS, READONLY, DEBUGGING
  5 .debug_info   000005e8  00000000  00000000  0000016c  2**0
                  CONTENTS, READONLY, DEBUGGING
  6 .debug_abbrev 0000052a  00000000  00000000  00000754  2**0
                  CONTENTS, READONLY, DEBUGGING
  7 .debug_line   00000282  00000000  00000000  00000c7e  2**0
                  CONTENTS, READONLY, DEBUGGING
  8 .debug_frame  00000024  00000000  00000000  00000f00  2**2
                  CONTENTS, READONLY, DEBUGGING
  9 .debug_str    00000318  00000000  00000000  00000f24  2**0
                  CONTENTS, READONLY, DEBUGGING
 10 .debug_loc    000000ab  00000000  00000000  0000123c  2**0
                  CONTENTS, READONLY, DEBUGGING
 11 .debug_ranges 00000010  00000000  00000000  000012e7  2**0
                  CONTENTS, READONLY, DEBUGGING

Disassembly of section .text:

00000000 <__vectors>:
   0:	12 c0       	rjmp	.+36     	; 0x26 <__ctors_end>
   2:	19 c0       	rjmp	.+50     	; 0x36 <__bad_interrupt>
   4:	18 c0       	rjmp	.+48     	; 0x36 <__bad_interrupt>
   6:	17 c0       	rjmp	.+46     	; 0x36 <__bad_interrupt>
   8:	16 c0       	rjmp	.+44     	; 0x36 <__bad_interrupt>
   a:	15 c0       	rjmp	.+42     	; 0x36 <__bad_interrupt>
   c:	14 c0       	rjmp	.+40     	; 0x36 <__bad_interrupt>
   e:	13 c0       	rjmp	.+38     	; 0x36 <__bad_interrupt>
  10:	12 c0       	rjmp	.+36     	; 0x36 <__bad_interrupt>
  12:	11 c0       	rjmp	.+34     	; 0x36 <__bad_interrupt>
  14:	10 c0       	rjmp	.+32     	; 0x36 <__bad_interrupt>
  16:	0f c0       	rjmp	.+30     	; 0x36 <__bad_interrupt>
  18:	0e c0       	rjmp	.+28     	; 0x36 <__bad_interrupt>
  1a:	0d c0       	rjmp	.+26     	; 0x36 <__bad_interrupt>
  1c:	0c c0       	rjmp	.+24     	; 0x36 <__bad_interrupt>
  1e:	0b c0       	rjmp	.+22     	; 0x36 <__bad_interrupt>
  20:	0a c0       	rjmp	.+20     	; 0x36 <__bad_interrupt>
  22:	09 c0       	rjmp	.+18     	; 0x36 <__bad_interrupt>
  24:	08 c0       	rjmp	.+16     	; 0x36 <__bad_interrupt>

00000026 <__ctors_end>:
  26:	11 24       	eor	r1, r1
  28:	1f be       	out	0x3f, r1	; 63
  2a:	cf e5       	ldi	r28, 0x5F	; 95
  2c:	d4 e0       	ldi	r29, 0x04	; 4
  2e:	de bf       	out	0x3e, r29	; 62
  30:	cd bf       	out	0x3d, r28	; 61
  32:	02 d0       	rcall	.+4      	; 0x38 <main>
  34:	28 c0       	rjmp	.+80     	; 0x86 <_exit>

00000036 <__bad_interrupt>:
  36:	e4 cf       	rjmp	.-56     	; 0x0 <__vectors>

00000038 <main>:
#include<util/delay.h>


int main(void)
{
	DDRB |= (1<<PORTB1);
  38:	87 b3       	in	r24, 0x17	; 23
  3a:	82 60       	ori	r24, 0x02	; 2
  3c:	87 bb       	out	0x17, r24	; 23
	
	TCCR1A |= (1<<COM1A1)|(1<<COM1A0)|(1<<WGM10);
  3e:	8f b5       	in	r24, 0x2f	; 47
  40:	81 6c       	ori	r24, 0xC1	; 193
  42:	8f bd       	out	0x2f, r24	; 47
	TCCR1B |= (1<<WGM12)|(1<<CS12);
  44:	8e b5       	in	r24, 0x2e	; 46
  46:	8c 60       	ori	r24, 0x0C	; 12
  48:	8e bd       	out	0x2e, r24	; 46
    /* Replace with your application code */
	unsigned char duty;
    while (1) 
    {
		for(duty=0; duty<255; duty++)
  4a:	80 e0       	ldi	r24, 0x00	; 0
  4c:	0b c0       	rjmp	.+22     	; 0x64 <__SREG__+0x25>
		{
			OCR1A=duty;  /*increase the LED light intensity*/
  4e:	28 2f       	mov	r18, r24
  50:	30 e0       	ldi	r19, 0x00	; 0
  52:	3b bd       	out	0x2b, r19	; 43
  54:	2a bd       	out	0x2a, r18	; 42
	#else
		//round up by default
		__ticks_dc = (uint32_t)(ceil(fabs(__tmp)));
	#endif

	__builtin_avr_delay_cycles(__ticks_dc);
  56:	ef e7       	ldi	r30, 0x7F	; 127
  58:	fe e3       	ldi	r31, 0x3E	; 62
  5a:	31 97       	sbiw	r30, 0x01	; 1
  5c:	f1 f7       	brne	.-4      	; 0x5a <__SREG__+0x1b>
  5e:	00 c0       	rjmp	.+0      	; 0x60 <__SREG__+0x21>
  60:	00 00       	nop
	TCCR1B |= (1<<WGM12)|(1<<CS12);
    /* Replace with your application code */
	unsigned char duty;
    while (1) 
    {
		for(duty=0; duty<255; duty++)
  62:	8f 5f       	subi	r24, 0xFF	; 255
  64:	8f 3f       	cpi	r24, 0xFF	; 255
  66:	99 f7       	brne	.-26     	; 0x4e <__SREG__+0xf>
  68:	0b c0       	rjmp	.+22     	; 0x80 <__SREG__+0x41>
			OCR1A=duty;  /*increase the LED light intensity*/
			_delay_ms(8);
		}
		for(duty=255; duty>1; duty--)
		{
			OCR1A=duty;  /*decrease the LED light intensity*/
  6a:	28 2f       	mov	r18, r24
  6c:	30 e0       	ldi	r19, 0x00	; 0
  6e:	3b bd       	out	0x2b, r19	; 43
  70:	2a bd       	out	0x2a, r18	; 42
  72:	ef e7       	ldi	r30, 0x7F	; 127
  74:	fe e3       	ldi	r31, 0x3E	; 62
  76:	31 97       	sbiw	r30, 0x01	; 1
  78:	f1 f7       	brne	.-4      	; 0x76 <__SREG__+0x37>
  7a:	00 c0       	rjmp	.+0      	; 0x7c <__SREG__+0x3d>
  7c:	00 00       	nop
		for(duty=0; duty<255; duty++)
		{
			OCR1A=duty;  /*increase the LED light intensity*/
			_delay_ms(8);
		}
		for(duty=255; duty>1; duty--)
  7e:	81 50       	subi	r24, 0x01	; 1
  80:	82 30       	cpi	r24, 0x02	; 2
  82:	98 f7       	brcc	.-26     	; 0x6a <__SREG__+0x2b>
  84:	e2 cf       	rjmp	.-60     	; 0x4a <__SREG__+0xb>

00000086 <_exit>:
  86:	f8 94       	cli

00000088 <__stop_program>:
  88:	ff cf       	rjmp	.-2      	; 0x88 <__stop_program>
