
pot_and_duty.elf:     file format elf32-avr

Sections:
Idx Name          Size      VMA       LMA       File off  Algn
  0 .text         00000aa0  00000000  00000000  00000054  2**1
                  CONTENTS, ALLOC, LOAD, READONLY, CODE
  1 .data         00000000  00800060  00800060  00000af4  2**0
                  CONTENTS, ALLOC, LOAD, DATA
  2 .comment      00000030  00000000  00000000  00000af4  2**0
                  CONTENTS, READONLY
  3 .note.gnu.avr.deviceinfo 0000003c  00000000  00000000  00000b24  2**2
                  CONTENTS, READONLY
  4 .debug_aranges 00000090  00000000  00000000  00000b60  2**0
                  CONTENTS, READONLY, DEBUGGING
  5 .debug_info   00000b49  00000000  00000000  00000bf0  2**0
                  CONTENTS, READONLY, DEBUGGING
  6 .debug_abbrev 000007fa  00000000  00000000  00001739  2**0
                  CONTENTS, READONLY, DEBUGGING
  7 .debug_line   000006ae  00000000  00000000  00001f33  2**0
                  CONTENTS, READONLY, DEBUGGING
  8 .debug_frame  00000154  00000000  00000000  000025e4  2**2
                  CONTENTS, READONLY, DEBUGGING
  9 .debug_str    00000409  00000000  00000000  00002738  2**0
                  CONTENTS, READONLY, DEBUGGING
 10 .debug_loc    00000723  00000000  00000000  00002b41  2**0
                  CONTENTS, READONLY, DEBUGGING
 11 .debug_ranges 00000088  00000000  00000000  00003264  2**0
                  CONTENTS, READONLY, DEBUGGING

Disassembly of section .text:

00000000 <__vectors>:
   0:	12 c0       	rjmp	.+36     	; 0x26 <__ctors_end>
   2:	19 c0       	rjmp	.+50     	; 0x36 <__bad_interrupt>
   4:	18 c0       	rjmp	.+48     	; 0x36 <__bad_interrupt>
   6:	17 c0       	rjmp	.+46     	; 0x36 <__bad_interrupt>
   8:	16 c0       	rjmp	.+44     	; 0x36 <__bad_interrupt>
   a:	15 c0       	rjmp	.+42     	; 0x36 <__bad_interrupt>
   c:	14 c0       	rjmp	.+40     	; 0x36 <__bad_interrupt>
   e:	13 c0       	rjmp	.+38     	; 0x36 <__bad_interrupt>
  10:	12 c0       	rjmp	.+36     	; 0x36 <__bad_interrupt>
  12:	11 c0       	rjmp	.+34     	; 0x36 <__bad_interrupt>
  14:	10 c0       	rjmp	.+32     	; 0x36 <__bad_interrupt>
  16:	0f c0       	rjmp	.+30     	; 0x36 <__bad_interrupt>
  18:	0e c0       	rjmp	.+28     	; 0x36 <__bad_interrupt>
  1a:	0d c0       	rjmp	.+26     	; 0x36 <__bad_interrupt>
  1c:	0c c0       	rjmp	.+24     	; 0x36 <__bad_interrupt>
  1e:	0b c0       	rjmp	.+22     	; 0x36 <__bad_interrupt>
  20:	0a c0       	rjmp	.+20     	; 0x36 <__bad_interrupt>
  22:	09 c0       	rjmp	.+18     	; 0x36 <__bad_interrupt>
  24:	08 c0       	rjmp	.+16     	; 0x36 <__bad_interrupt>

00000026 <__ctors_end>:
  26:	11 24       	eor	r1, r1
  28:	1f be       	out	0x3f, r1	; 63
  2a:	cf e5       	ldi	r28, 0x5F	; 95
  2c:	d4 e0       	ldi	r29, 0x04	; 4
  2e:	de bf       	out	0x3e, r29	; 62
  30:	cd bf       	out	0x3d, r28	; 61
  32:	bc d0       	rcall	.+376    	; 0x1ac <main>
  34:	33 c5       	rjmp	.+2662   	; 0xa9c <_exit>

00000036 <__bad_interrupt>:
  36:	e4 cf       	rjmp	.-56     	; 0x0 <__vectors>

00000038 <USART_Init>:
#include <avr/io.h>
#include <util/delay.h>
#include <usart.h>

void USART_Init(long USART_BAUDRATE){
	UBRRL = BAUD_PRESCALE;			/* Load lower 8-bits of the baud rate */
  38:	dc 01       	movw	r26, r24
  3a:	cb 01       	movw	r24, r22
  3c:	88 0f       	add	r24, r24
  3e:	99 1f       	adc	r25, r25
  40:	aa 1f       	adc	r26, r26
  42:	bb 1f       	adc	r27, r27
  44:	88 0f       	add	r24, r24
  46:	99 1f       	adc	r25, r25
  48:	aa 1f       	adc	r26, r26
  4a:	bb 1f       	adc	r27, r27
  4c:	9c 01       	movw	r18, r24
  4e:	ad 01       	movw	r20, r26
  50:	22 0f       	add	r18, r18
  52:	33 1f       	adc	r19, r19
  54:	44 1f       	adc	r20, r20
  56:	55 1f       	adc	r21, r21
  58:	22 0f       	add	r18, r18
  5a:	33 1f       	adc	r19, r19
  5c:	44 1f       	adc	r20, r20
  5e:	55 1f       	adc	r21, r21
  60:	60 e0       	ldi	r22, 0x00	; 0
  62:	79 e0       	ldi	r23, 0x09	; 9
  64:	8d e3       	ldi	r24, 0x3D	; 61
  66:	90 e0       	ldi	r25, 0x00	; 0
  68:	da d2       	rcall	.+1460   	; 0x61e <__udivmodsi4>
  6a:	8f ef       	ldi	r24, 0xFF	; 255
  6c:	82 0f       	add	r24, r18
  6e:	89 b9       	out	0x09, r24	; 9
	UBRRH = (BAUD_PRESCALE >> 8);
  70:	da 01       	movw	r26, r20
  72:	c9 01       	movw	r24, r18
  74:	01 97       	sbiw	r24, 0x01	; 1
  76:	a1 09       	sbc	r26, r1
  78:	b1 09       	sbc	r27, r1
  7a:	89 2f       	mov	r24, r25
  7c:	9a 2f       	mov	r25, r26
  7e:	ab 2f       	mov	r26, r27
  80:	bb 27       	eor	r27, r27
  82:	80 bd       	out	0x20, r24	; 32
	UCSRB |= (1 << RXEN) | (1 << TXEN);	/* Turn on transmission and reception */
  84:	8a b1       	in	r24, 0x0a	; 10
  86:	88 61       	ori	r24, 0x18	; 24
  88:	8a b9       	out	0x0a, r24	; 10
	UCSRC |= (1 << URSEL) | (1 << UCSZ0) | (1 << UCSZ1);/* Use 8-bit char size */
  8a:	80 b5       	in	r24, 0x20	; 32
  8c:	86 68       	ori	r24, 0x86	; 134
  8e:	80 bd       	out	0x20, r24	; 32
  90:	08 95       	ret

00000092 <compare>:
		char temp = str[j];
		str[j] = str[k];
		str[k] = temp;
	}
	
}
  92:	fc 01       	movw	r30, r24
  94:	80 81       	ld	r24, Z
  96:	91 81       	ldd	r25, Z+1	; 0x01
  98:	fb 01       	movw	r30, r22
  9a:	20 81       	ld	r18, Z
  9c:	31 81       	ldd	r19, Z+1	; 0x01
  9e:	82 1b       	sub	r24, r18
  a0:	93 0b       	sbc	r25, r19
  a2:	08 95       	ret

000000a4 <mod>:
  a4:	0f 93       	push	r16
  a6:	1f 93       	push	r17
  a8:	cf 93       	push	r28
  aa:	df 93       	push	r29
  ac:	ec 01       	movw	r28, r24
  ae:	8b 01       	movw	r16, r22
  b0:	29 e4       	ldi	r18, 0x49	; 73
  b2:	30 e0       	ldi	r19, 0x00	; 0
  b4:	42 e0       	ldi	r20, 0x02	; 2
  b6:	50 e0       	ldi	r21, 0x00	; 0
  b8:	27 d3       	rcall	.+1614   	; 0x708 <qsort>
  ba:	88 81       	ld	r24, Y
  bc:	99 81       	ldd	r25, Y+1	; 0x01
  be:	21 e0       	ldi	r18, 0x01	; 1
  c0:	30 e0       	ldi	r19, 0x00	; 0
  c2:	61 e0       	ldi	r22, 0x01	; 1
  c4:	70 e0       	ldi	r23, 0x00	; 0
  c6:	41 e0       	ldi	r20, 0x01	; 1
  c8:	50 e0       	ldi	r21, 0x00	; 0
  ca:	24 c0       	rjmp	.+72     	; 0x114 <mod+0x70>
  cc:	f9 01       	movw	r30, r18
  ce:	ee 0f       	add	r30, r30
  d0:	ff 1f       	adc	r31, r31
  d2:	ec 0f       	add	r30, r28
  d4:	fd 1f       	adc	r31, r29
  d6:	a0 81       	ld	r26, Z
  d8:	b1 81       	ldd	r27, Z+1	; 0x01
  da:	f9 01       	movw	r30, r18
  dc:	e1 50       	subi	r30, 0x01	; 1
  de:	f0 48       	sbci	r31, 0x80	; 128
  e0:	ee 0f       	add	r30, r30
  e2:	ff 1f       	adc	r31, r31
  e4:	ec 0f       	add	r30, r28
  e6:	fd 1f       	adc	r31, r29
  e8:	01 90       	ld	r0, Z+
  ea:	f0 81       	ld	r31, Z
  ec:	e0 2d       	mov	r30, r0
  ee:	ae 17       	cp	r26, r30
  f0:	bf 07       	cpc	r27, r31
  f2:	19 f4       	brne	.+6      	; 0xfa <mod+0x56>
  f4:	4f 5f       	subi	r20, 0xFF	; 255
  f6:	5f 4f       	sbci	r21, 0xFF	; 255
  f8:	0b c0       	rjmp	.+22     	; 0x110 <mod+0x6c>
  fa:	64 17       	cp	r22, r20
  fc:	75 07       	cpc	r23, r21
  fe:	1c f0       	brlt	.+6      	; 0x106 <mod+0x62>
 100:	41 e0       	ldi	r20, 0x01	; 1
 102:	50 e0       	ldi	r21, 0x00	; 0
 104:	05 c0       	rjmp	.+10     	; 0x110 <mod+0x6c>
 106:	ba 01       	movw	r22, r20
 108:	8e 2f       	mov	r24, r30
 10a:	9f 2f       	mov	r25, r31
 10c:	41 e0       	ldi	r20, 0x01	; 1
 10e:	50 e0       	ldi	r21, 0x00	; 0
 110:	2f 5f       	subi	r18, 0xFF	; 255
 112:	3f 4f       	sbci	r19, 0xFF	; 255
 114:	20 17       	cp	r18, r16
 116:	31 07       	cpc	r19, r17
 118:	cc f2       	brlt	.-78     	; 0xcc <mod+0x28>
 11a:	64 17       	cp	r22, r20
 11c:	75 07       	cpc	r23, r21
 11e:	44 f4       	brge	.+16     	; 0x130 <mod+0x8c>
 120:	01 50       	subi	r16, 0x01	; 1
 122:	10 48       	sbci	r17, 0x80	; 128
 124:	00 0f       	add	r16, r16
 126:	11 1f       	adc	r17, r17
 128:	c0 0f       	add	r28, r16
 12a:	d1 1f       	adc	r29, r17
 12c:	88 81       	ld	r24, Y
 12e:	99 81       	ldd	r25, Y+1	; 0x01
 130:	df 91       	pop	r29
 132:	cf 91       	pop	r28
 134:	1f 91       	pop	r17
 136:	0f 91       	pop	r16
 138:	08 95       	ret

0000013a <get_val>:

int get_val(void){
	unsigned int t1;
	unsigned int t2;
	
	TCCR1A = 0;
 13a:	1f bc       	out	0x2f, r1	; 47
	TIFR |=(1<<ICF1);
 13c:	88 b7       	in	r24, 0x38	; 56
 13e:	80 62       	ori	r24, 0x20	; 32
 140:	88 bf       	out	0x38, r24	; 56
	TCCR1B = 0x41;
 142:	81 e4       	ldi	r24, 0x41	; 65
 144:	8e bd       	out	0x2e, r24	; 46
	PORTD |= (1 << PORTD7);
 146:	82 b3       	in	r24, 0x12	; 18
 148:	80 68       	ori	r24, 0x80	; 128
 14a:	82 bb       	out	0x12, r24	; 18
	#else
		//round up by default
		__ticks_dc = (uint32_t)(ceil(fabs(__tmp)));
	#endif

	__builtin_avr_delay_cycles(__ticks_dc);
 14c:	8d e0       	ldi	r24, 0x0D	; 13
 14e:	8a 95       	dec	r24
 150:	f1 f7       	brne	.-4      	; 0x14e <get_val+0x14>
 152:	00 00       	nop
	_delay_us(10);
	PORTD &= (0 << PORTD7);
 154:	82 b3       	in	r24, 0x12	; 18
 156:	12 ba       	out	0x12, r1	; 18
	while((TIFR&(1<<ICF1))==0);
 158:	08 b6       	in	r0, 0x38	; 56
 15a:	05 fe       	sbrs	r0, 5
 15c:	fd cf       	rjmp	.-6      	; 0x158 <get_val+0x1e>
	t1 = ICR1;
 15e:	26 b5       	in	r18, 0x26	; 38
 160:	37 b5       	in	r19, 0x27	; 39
	TIFR |= (1 <<ICF1);
 162:	88 b7       	in	r24, 0x38	; 56
 164:	80 62       	ori	r24, 0x20	; 32
 166:	88 bf       	out	0x38, r24	; 56
	
	TCCR1B = 0x01;
 168:	81 e0       	ldi	r24, 0x01	; 1
 16a:	8e bd       	out	0x2e, r24	; 46
	while((TIFR&(1<<ICF1))==0);
 16c:	08 b6       	in	r0, 0x38	; 56
 16e:	05 fe       	sbrs	r0, 5
 170:	fd cf       	rjmp	.-6      	; 0x16c <get_val+0x32>
	t2 = ICR1;
 172:	66 b5       	in	r22, 0x26	; 38
 174:	77 b5       	in	r23, 0x27	; 39
	
	double time_dur = ((t2-t1)/4)/58.0;
 176:	62 1b       	sub	r22, r18
 178:	73 0b       	sbc	r23, r19
 17a:	76 95       	lsr	r23
 17c:	67 95       	ror	r22
 17e:	76 95       	lsr	r23
 180:	67 95       	ror	r22
 182:	80 e0       	ldi	r24, 0x00	; 0
 184:	90 e0       	ldi	r25, 0x00	; 0
 186:	5a d1       	rcall	.+692    	; 0x43c <__floatunsisf>
 188:	20 e0       	ldi	r18, 0x00	; 0
 18a:	30 e0       	ldi	r19, 0x00	; 0
 18c:	48 e6       	ldi	r20, 0x68	; 104
 18e:	52 e4       	ldi	r21, 0x42	; 66
 190:	bc d0       	rcall	.+376    	; 0x30a <__divsf3>
	double pwm = time_dur*(-14.16) + 354.12;
 192:	2c e5       	ldi	r18, 0x5C	; 92
 194:	3f e8       	ldi	r19, 0x8F	; 143
 196:	42 e6       	ldi	r20, 0x62	; 98
 198:	51 ec       	ldi	r21, 0xC1	; 193
 19a:	de d1       	rcall	.+956    	; 0x558 <__mulsf3>
 19c:	2c e5       	ldi	r18, 0x5C	; 92
 19e:	3f e0       	ldi	r19, 0x0F	; 15
 1a0:	41 eb       	ldi	r20, 0xB1	; 177
 1a2:	53 e4       	ldi	r21, 0x43	; 67
 1a4:	4e d0       	rcall	.+156    	; 0x242 <__addsf3>
	
	
	return (int)pwm;
 1a6:	19 d1       	rcall	.+562    	; 0x3da <__fixsfsi>
	
}
 1a8:	cb 01       	movw	r24, r22
 1aa:	08 95       	ret

000001ac <main>:



int main(void)
{
 1ac:	cf 93       	push	r28
 1ae:	df 93       	push	r29
 1b0:	cd b7       	in	r28, 0x3d	; 61
 1b2:	de b7       	in	r29, 0x3e	; 62
 1b4:	64 97       	sbiw	r28, 0x14	; 20
 1b6:	0f b6       	in	r0, 0x3f	; 63
 1b8:	f8 94       	cli
 1ba:	de bf       	out	0x3e, r29	; 62
 1bc:	0f be       	out	0x3f, r0	; 63
 1be:	cd bf       	out	0x3d, r28	; 61
	DDRB |= (1 << DDRB3);	
 1c0:	87 b3       	in	r24, 0x17	; 23
 1c2:	88 60       	ori	r24, 0x08	; 8
 1c4:	87 bb       	out	0x17, r24	; 23
	DDRD |= (1 << DDRD7)|(1 << DDRD1);
 1c6:	81 b3       	in	r24, 0x11	; 17
 1c8:	82 68       	ori	r24, 0x82	; 130
 1ca:	81 bb       	out	0x11, r24	; 17
	
	USART_Init(9600);
 1cc:	60 e8       	ldi	r22, 0x80	; 128
 1ce:	75 e2       	ldi	r23, 0x25	; 37
 1d0:	80 e0       	ldi	r24, 0x00	; 0
 1d2:	90 e0       	ldi	r25, 0x00	; 0
 1d4:	31 df       	rcall	.-414    	; 0x38 <USART_Init>

	
	PORTD &= (0 << PORTD7);
 1d6:	82 b3       	in	r24, 0x12	; 18
 1d8:	12 ba       	out	0x12, r1	; 18
	int pwm = 2;
	char str[10];
	int vals[SIZE];
	OCR2 = 100;
 1da:	84 e6       	ldi	r24, 0x64	; 100
 1dc:	83 bd       	out	0x23, r24	; 35
	TCCR2 |= (1 << WGM21)|(1<<WGM20)|(1<<COM21)|(1<<CS22);
 1de:	85 b5       	in	r24, 0x25	; 37
 1e0:	8c 66       	ori	r24, 0x6C	; 108
 1e2:	85 bd       	out	0x25, r24	; 37
    while (1) 
    {	
		for(int i=0;i<SIZE;i++){
 1e4:	00 e0       	ldi	r16, 0x00	; 0
 1e6:	10 e0       	ldi	r17, 0x00	; 0
 1e8:	17 c0       	rjmp	.+46     	; 0x218 <__EEPROM_REGION_LENGTH__+0x18>
			vals[i] = get_val();
 1ea:	a7 df       	rcall	.-178    	; 0x13a <get_val>
 1ec:	f8 01       	movw	r30, r16
 1ee:	ee 0f       	add	r30, r30
 1f0:	ff 1f       	adc	r31, r31
 1f2:	21 e0       	ldi	r18, 0x01	; 1
 1f4:	30 e0       	ldi	r19, 0x00	; 0
 1f6:	2c 0f       	add	r18, r28
 1f8:	3d 1f       	adc	r19, r29
 1fa:	e2 0f       	add	r30, r18
 1fc:	f3 1f       	adc	r31, r19
 1fe:	91 83       	std	Z+1, r25	; 0x01
 200:	80 83       	st	Z, r24
	#else
		//round up by default
		__ticks_dc = (uint32_t)(ceil(fabs(__tmp)));
	#endif

	__builtin_avr_delay_cycles(__ticks_dc);
 202:	3f ef       	ldi	r19, 0xFF	; 255
 204:	80 e7       	ldi	r24, 0x70	; 112
 206:	92 e0       	ldi	r25, 0x02	; 2
 208:	31 50       	subi	r19, 0x01	; 1
 20a:	80 40       	sbci	r24, 0x00	; 0
 20c:	90 40       	sbci	r25, 0x00	; 0
 20e:	e1 f7       	brne	.-8      	; 0x208 <__EEPROM_REGION_LENGTH__+0x8>
 210:	00 c0       	rjmp	.+0      	; 0x212 <__EEPROM_REGION_LENGTH__+0x12>
 212:	00 00       	nop
	int vals[SIZE];
	OCR2 = 100;
	TCCR2 |= (1 << WGM21)|(1<<WGM20)|(1<<COM21)|(1<<CS22);
    while (1) 
    {	
		for(int i=0;i<SIZE;i++){
 214:	0f 5f       	subi	r16, 0xFF	; 255
 216:	1f 4f       	sbci	r17, 0xFF	; 255
 218:	0a 30       	cpi	r16, 0x0A	; 10
 21a:	11 05       	cpc	r17, r1
 21c:	34 f3       	brlt	.-52     	; 0x1ea <main+0x3e>
			vals[i] = get_val();
			_delay_ms(200);
		}
		pwm = mod(vals,SIZE);
 21e:	6a e0       	ldi	r22, 0x0A	; 10
 220:	70 e0       	ldi	r23, 0x00	; 0
 222:	ce 01       	movw	r24, r28
 224:	01 96       	adiw	r24, 0x01	; 1
 226:	3e df       	rcall	.-388    	; 0xa4 <mod>
		if(pwm > 248){
 228:	89 3f       	cpi	r24, 0xF9	; 249
 22a:	91 05       	cpc	r25, r1
 22c:	14 f0       	brlt	.+4      	; 0x232 <__EEPROM_REGION_LENGTH__+0x32>
			pwm = 248;
 22e:	88 ef       	ldi	r24, 0xF8	; 248
 230:	90 e0       	ldi	r25, 0x00	; 0
		}
		if(pwm < 8){
 232:	88 30       	cpi	r24, 0x08	; 8
 234:	91 05       	cpc	r25, r1
 236:	14 f4       	brge	.+4      	; 0x23c <__EEPROM_REGION_LENGTH__+0x3c>
			pwm = 8;
 238:	88 e0       	ldi	r24, 0x08	; 8
 23a:	90 e0       	ldi	r25, 0x00	; 0
		}
		OCR2 = pwm;
 23c:	83 bd       	out	0x23, r24	; 35
		
    }
 23e:	d2 cf       	rjmp	.-92     	; 0x1e4 <main+0x38>

00000240 <__subsf3>:
 240:	50 58       	subi	r21, 0x80	; 128

00000242 <__addsf3>:
 242:	bb 27       	eor	r27, r27
 244:	aa 27       	eor	r26, r26
 246:	0e d0       	rcall	.+28     	; 0x264 <__addsf3x>
 248:	4d c1       	rjmp	.+666    	; 0x4e4 <__fp_round>
 24a:	3e d1       	rcall	.+636    	; 0x4c8 <__fp_pscA>
 24c:	30 f0       	brcs	.+12     	; 0x25a <__addsf3+0x18>
 24e:	43 d1       	rcall	.+646    	; 0x4d6 <__fp_pscB>
 250:	20 f0       	brcs	.+8      	; 0x25a <__addsf3+0x18>
 252:	31 f4       	brne	.+12     	; 0x260 <__addsf3+0x1e>
 254:	9f 3f       	cpi	r25, 0xFF	; 255
 256:	11 f4       	brne	.+4      	; 0x25c <__addsf3+0x1a>
 258:	1e f4       	brtc	.+6      	; 0x260 <__addsf3+0x1e>
 25a:	33 c1       	rjmp	.+614    	; 0x4c2 <__fp_nan>
 25c:	0e f4       	brtc	.+2      	; 0x260 <__addsf3+0x1e>
 25e:	e0 95       	com	r30
 260:	e7 fb       	bst	r30, 7
 262:	29 c1       	rjmp	.+594    	; 0x4b6 <__fp_inf>

00000264 <__addsf3x>:
 264:	e9 2f       	mov	r30, r25
 266:	4f d1       	rcall	.+670    	; 0x506 <__fp_split3>
 268:	80 f3       	brcs	.-32     	; 0x24a <__addsf3+0x8>
 26a:	ba 17       	cp	r27, r26
 26c:	62 07       	cpc	r22, r18
 26e:	73 07       	cpc	r23, r19
 270:	84 07       	cpc	r24, r20
 272:	95 07       	cpc	r25, r21
 274:	18 f0       	brcs	.+6      	; 0x27c <__addsf3x+0x18>
 276:	71 f4       	brne	.+28     	; 0x294 <__addsf3x+0x30>
 278:	9e f5       	brtc	.+102    	; 0x2e0 <__addsf3x+0x7c>
 27a:	67 c1       	rjmp	.+718    	; 0x54a <__fp_zero>
 27c:	0e f4       	brtc	.+2      	; 0x280 <__addsf3x+0x1c>
 27e:	e0 95       	com	r30
 280:	0b 2e       	mov	r0, r27
 282:	ba 2f       	mov	r27, r26
 284:	a0 2d       	mov	r26, r0
 286:	0b 01       	movw	r0, r22
 288:	b9 01       	movw	r22, r18
 28a:	90 01       	movw	r18, r0
 28c:	0c 01       	movw	r0, r24
 28e:	ca 01       	movw	r24, r20
 290:	a0 01       	movw	r20, r0
 292:	11 24       	eor	r1, r1
 294:	ff 27       	eor	r31, r31
 296:	59 1b       	sub	r21, r25
 298:	99 f0       	breq	.+38     	; 0x2c0 <__addsf3x+0x5c>
 29a:	59 3f       	cpi	r21, 0xF9	; 249
 29c:	50 f4       	brcc	.+20     	; 0x2b2 <__addsf3x+0x4e>
 29e:	50 3e       	cpi	r21, 0xE0	; 224
 2a0:	68 f1       	brcs	.+90     	; 0x2fc <__addsf3x+0x98>
 2a2:	1a 16       	cp	r1, r26
 2a4:	f0 40       	sbci	r31, 0x00	; 0
 2a6:	a2 2f       	mov	r26, r18
 2a8:	23 2f       	mov	r18, r19
 2aa:	34 2f       	mov	r19, r20
 2ac:	44 27       	eor	r20, r20
 2ae:	58 5f       	subi	r21, 0xF8	; 248
 2b0:	f3 cf       	rjmp	.-26     	; 0x298 <__addsf3x+0x34>
 2b2:	46 95       	lsr	r20
 2b4:	37 95       	ror	r19
 2b6:	27 95       	ror	r18
 2b8:	a7 95       	ror	r26
 2ba:	f0 40       	sbci	r31, 0x00	; 0
 2bc:	53 95       	inc	r21
 2be:	c9 f7       	brne	.-14     	; 0x2b2 <__addsf3x+0x4e>
 2c0:	7e f4       	brtc	.+30     	; 0x2e0 <__addsf3x+0x7c>
 2c2:	1f 16       	cp	r1, r31
 2c4:	ba 0b       	sbc	r27, r26
 2c6:	62 0b       	sbc	r22, r18
 2c8:	73 0b       	sbc	r23, r19
 2ca:	84 0b       	sbc	r24, r20
 2cc:	ba f0       	brmi	.+46     	; 0x2fc <__addsf3x+0x98>
 2ce:	91 50       	subi	r25, 0x01	; 1
 2d0:	a1 f0       	breq	.+40     	; 0x2fa <__addsf3x+0x96>
 2d2:	ff 0f       	add	r31, r31
 2d4:	bb 1f       	adc	r27, r27
 2d6:	66 1f       	adc	r22, r22
 2d8:	77 1f       	adc	r23, r23
 2da:	88 1f       	adc	r24, r24
 2dc:	c2 f7       	brpl	.-16     	; 0x2ce <__addsf3x+0x6a>
 2de:	0e c0       	rjmp	.+28     	; 0x2fc <__addsf3x+0x98>
 2e0:	ba 0f       	add	r27, r26
 2e2:	62 1f       	adc	r22, r18
 2e4:	73 1f       	adc	r23, r19
 2e6:	84 1f       	adc	r24, r20
 2e8:	48 f4       	brcc	.+18     	; 0x2fc <__addsf3x+0x98>
 2ea:	87 95       	ror	r24
 2ec:	77 95       	ror	r23
 2ee:	67 95       	ror	r22
 2f0:	b7 95       	ror	r27
 2f2:	f7 95       	ror	r31
 2f4:	9e 3f       	cpi	r25, 0xFE	; 254
 2f6:	08 f0       	brcs	.+2      	; 0x2fa <__addsf3x+0x96>
 2f8:	b3 cf       	rjmp	.-154    	; 0x260 <__addsf3+0x1e>
 2fa:	93 95       	inc	r25
 2fc:	88 0f       	add	r24, r24
 2fe:	08 f0       	brcs	.+2      	; 0x302 <__addsf3x+0x9e>
 300:	99 27       	eor	r25, r25
 302:	ee 0f       	add	r30, r30
 304:	97 95       	ror	r25
 306:	87 95       	ror	r24
 308:	08 95       	ret

0000030a <__divsf3>:
 30a:	0c d0       	rcall	.+24     	; 0x324 <__divsf3x>
 30c:	eb c0       	rjmp	.+470    	; 0x4e4 <__fp_round>
 30e:	e3 d0       	rcall	.+454    	; 0x4d6 <__fp_pscB>
 310:	40 f0       	brcs	.+16     	; 0x322 <__divsf3+0x18>
 312:	da d0       	rcall	.+436    	; 0x4c8 <__fp_pscA>
 314:	30 f0       	brcs	.+12     	; 0x322 <__divsf3+0x18>
 316:	21 f4       	brne	.+8      	; 0x320 <__divsf3+0x16>
 318:	5f 3f       	cpi	r21, 0xFF	; 255
 31a:	19 f0       	breq	.+6      	; 0x322 <__divsf3+0x18>
 31c:	cc c0       	rjmp	.+408    	; 0x4b6 <__fp_inf>
 31e:	51 11       	cpse	r21, r1
 320:	15 c1       	rjmp	.+554    	; 0x54c <__fp_szero>
 322:	cf c0       	rjmp	.+414    	; 0x4c2 <__fp_nan>

00000324 <__divsf3x>:
 324:	f0 d0       	rcall	.+480    	; 0x506 <__fp_split3>
 326:	98 f3       	brcs	.-26     	; 0x30e <__divsf3+0x4>

00000328 <__divsf3_pse>:
 328:	99 23       	and	r25, r25
 32a:	c9 f3       	breq	.-14     	; 0x31e <__divsf3+0x14>
 32c:	55 23       	and	r21, r21
 32e:	b1 f3       	breq	.-20     	; 0x31c <__divsf3+0x12>
 330:	95 1b       	sub	r25, r21
 332:	55 0b       	sbc	r21, r21
 334:	bb 27       	eor	r27, r27
 336:	aa 27       	eor	r26, r26
 338:	62 17       	cp	r22, r18
 33a:	73 07       	cpc	r23, r19
 33c:	84 07       	cpc	r24, r20
 33e:	38 f0       	brcs	.+14     	; 0x34e <__divsf3_pse+0x26>
 340:	9f 5f       	subi	r25, 0xFF	; 255
 342:	5f 4f       	sbci	r21, 0xFF	; 255
 344:	22 0f       	add	r18, r18
 346:	33 1f       	adc	r19, r19
 348:	44 1f       	adc	r20, r20
 34a:	aa 1f       	adc	r26, r26
 34c:	a9 f3       	breq	.-22     	; 0x338 <__divsf3_pse+0x10>
 34e:	33 d0       	rcall	.+102    	; 0x3b6 <__divsf3_pse+0x8e>
 350:	0e 2e       	mov	r0, r30
 352:	3a f0       	brmi	.+14     	; 0x362 <__divsf3_pse+0x3a>
 354:	e0 e8       	ldi	r30, 0x80	; 128
 356:	30 d0       	rcall	.+96     	; 0x3b8 <__divsf3_pse+0x90>
 358:	91 50       	subi	r25, 0x01	; 1
 35a:	50 40       	sbci	r21, 0x00	; 0
 35c:	e6 95       	lsr	r30
 35e:	00 1c       	adc	r0, r0
 360:	ca f7       	brpl	.-14     	; 0x354 <__divsf3_pse+0x2c>
 362:	29 d0       	rcall	.+82     	; 0x3b6 <__divsf3_pse+0x8e>
 364:	fe 2f       	mov	r31, r30
 366:	27 d0       	rcall	.+78     	; 0x3b6 <__divsf3_pse+0x8e>
 368:	66 0f       	add	r22, r22
 36a:	77 1f       	adc	r23, r23
 36c:	88 1f       	adc	r24, r24
 36e:	bb 1f       	adc	r27, r27
 370:	26 17       	cp	r18, r22
 372:	37 07       	cpc	r19, r23
 374:	48 07       	cpc	r20, r24
 376:	ab 07       	cpc	r26, r27
 378:	b0 e8       	ldi	r27, 0x80	; 128
 37a:	09 f0       	breq	.+2      	; 0x37e <__divsf3_pse+0x56>
 37c:	bb 0b       	sbc	r27, r27
 37e:	80 2d       	mov	r24, r0
 380:	bf 01       	movw	r22, r30
 382:	ff 27       	eor	r31, r31
 384:	93 58       	subi	r25, 0x83	; 131
 386:	5f 4f       	sbci	r21, 0xFF	; 255
 388:	2a f0       	brmi	.+10     	; 0x394 <__divsf3_pse+0x6c>
 38a:	9e 3f       	cpi	r25, 0xFE	; 254
 38c:	51 05       	cpc	r21, r1
 38e:	68 f0       	brcs	.+26     	; 0x3aa <__divsf3_pse+0x82>
 390:	92 c0       	rjmp	.+292    	; 0x4b6 <__fp_inf>
 392:	dc c0       	rjmp	.+440    	; 0x54c <__fp_szero>
 394:	5f 3f       	cpi	r21, 0xFF	; 255
 396:	ec f3       	brlt	.-6      	; 0x392 <__divsf3_pse+0x6a>
 398:	98 3e       	cpi	r25, 0xE8	; 232
 39a:	dc f3       	brlt	.-10     	; 0x392 <__divsf3_pse+0x6a>
 39c:	86 95       	lsr	r24
 39e:	77 95       	ror	r23
 3a0:	67 95       	ror	r22
 3a2:	b7 95       	ror	r27
 3a4:	f7 95       	ror	r31
 3a6:	9f 5f       	subi	r25, 0xFF	; 255
 3a8:	c9 f7       	brne	.-14     	; 0x39c <__divsf3_pse+0x74>
 3aa:	88 0f       	add	r24, r24
 3ac:	91 1d       	adc	r25, r1
 3ae:	96 95       	lsr	r25
 3b0:	87 95       	ror	r24
 3b2:	97 f9       	bld	r25, 7
 3b4:	08 95       	ret
 3b6:	e1 e0       	ldi	r30, 0x01	; 1
 3b8:	66 0f       	add	r22, r22
 3ba:	77 1f       	adc	r23, r23
 3bc:	88 1f       	adc	r24, r24
 3be:	bb 1f       	adc	r27, r27
 3c0:	62 17       	cp	r22, r18
 3c2:	73 07       	cpc	r23, r19
 3c4:	84 07       	cpc	r24, r20
 3c6:	ba 07       	cpc	r27, r26
 3c8:	20 f0       	brcs	.+8      	; 0x3d2 <__divsf3_pse+0xaa>
 3ca:	62 1b       	sub	r22, r18
 3cc:	73 0b       	sbc	r23, r19
 3ce:	84 0b       	sbc	r24, r20
 3d0:	ba 0b       	sbc	r27, r26
 3d2:	ee 1f       	adc	r30, r30
 3d4:	88 f7       	brcc	.-30     	; 0x3b8 <__divsf3_pse+0x90>
 3d6:	e0 95       	com	r30
 3d8:	08 95       	ret

000003da <__fixsfsi>:
 3da:	04 d0       	rcall	.+8      	; 0x3e4 <__fixunssfsi>
 3dc:	68 94       	set
 3de:	b1 11       	cpse	r27, r1
 3e0:	b5 c0       	rjmp	.+362    	; 0x54c <__fp_szero>
 3e2:	08 95       	ret

000003e4 <__fixunssfsi>:
 3e4:	98 d0       	rcall	.+304    	; 0x516 <__fp_splitA>
 3e6:	88 f0       	brcs	.+34     	; 0x40a <__DATA_REGION_LENGTH__+0xa>
 3e8:	9f 57       	subi	r25, 0x7F	; 127
 3ea:	90 f0       	brcs	.+36     	; 0x410 <__DATA_REGION_LENGTH__+0x10>
 3ec:	b9 2f       	mov	r27, r25
 3ee:	99 27       	eor	r25, r25
 3f0:	b7 51       	subi	r27, 0x17	; 23
 3f2:	a0 f0       	brcs	.+40     	; 0x41c <__DATA_REGION_LENGTH__+0x1c>
 3f4:	d1 f0       	breq	.+52     	; 0x42a <__DATA_REGION_LENGTH__+0x2a>
 3f6:	66 0f       	add	r22, r22
 3f8:	77 1f       	adc	r23, r23
 3fa:	88 1f       	adc	r24, r24
 3fc:	99 1f       	adc	r25, r25
 3fe:	1a f0       	brmi	.+6      	; 0x406 <__DATA_REGION_LENGTH__+0x6>
 400:	ba 95       	dec	r27
 402:	c9 f7       	brne	.-14     	; 0x3f6 <__fixunssfsi+0x12>
 404:	12 c0       	rjmp	.+36     	; 0x42a <__DATA_REGION_LENGTH__+0x2a>
 406:	b1 30       	cpi	r27, 0x01	; 1
 408:	81 f0       	breq	.+32     	; 0x42a <__DATA_REGION_LENGTH__+0x2a>
 40a:	9f d0       	rcall	.+318    	; 0x54a <__fp_zero>
 40c:	b1 e0       	ldi	r27, 0x01	; 1
 40e:	08 95       	ret
 410:	9c c0       	rjmp	.+312    	; 0x54a <__fp_zero>
 412:	67 2f       	mov	r22, r23
 414:	78 2f       	mov	r23, r24
 416:	88 27       	eor	r24, r24
 418:	b8 5f       	subi	r27, 0xF8	; 248
 41a:	39 f0       	breq	.+14     	; 0x42a <__DATA_REGION_LENGTH__+0x2a>
 41c:	b9 3f       	cpi	r27, 0xF9	; 249
 41e:	cc f3       	brlt	.-14     	; 0x412 <__DATA_REGION_LENGTH__+0x12>
 420:	86 95       	lsr	r24
 422:	77 95       	ror	r23
 424:	67 95       	ror	r22
 426:	b3 95       	inc	r27
 428:	d9 f7       	brne	.-10     	; 0x420 <__DATA_REGION_LENGTH__+0x20>
 42a:	3e f4       	brtc	.+14     	; 0x43a <__DATA_REGION_LENGTH__+0x3a>
 42c:	90 95       	com	r25
 42e:	80 95       	com	r24
 430:	70 95       	com	r23
 432:	61 95       	neg	r22
 434:	7f 4f       	sbci	r23, 0xFF	; 255
 436:	8f 4f       	sbci	r24, 0xFF	; 255
 438:	9f 4f       	sbci	r25, 0xFF	; 255
 43a:	08 95       	ret

0000043c <__floatunsisf>:
 43c:	e8 94       	clt
 43e:	09 c0       	rjmp	.+18     	; 0x452 <__floatsisf+0x12>

00000440 <__floatsisf>:
 440:	97 fb       	bst	r25, 7
 442:	3e f4       	brtc	.+14     	; 0x452 <__floatsisf+0x12>
 444:	90 95       	com	r25
 446:	80 95       	com	r24
 448:	70 95       	com	r23
 44a:	61 95       	neg	r22
 44c:	7f 4f       	sbci	r23, 0xFF	; 255
 44e:	8f 4f       	sbci	r24, 0xFF	; 255
 450:	9f 4f       	sbci	r25, 0xFF	; 255
 452:	99 23       	and	r25, r25
 454:	a9 f0       	breq	.+42     	; 0x480 <__stack+0x21>
 456:	f9 2f       	mov	r31, r25
 458:	96 e9       	ldi	r25, 0x96	; 150
 45a:	bb 27       	eor	r27, r27
 45c:	93 95       	inc	r25
 45e:	f6 95       	lsr	r31
 460:	87 95       	ror	r24
 462:	77 95       	ror	r23
 464:	67 95       	ror	r22
 466:	b7 95       	ror	r27
 468:	f1 11       	cpse	r31, r1
 46a:	f8 cf       	rjmp	.-16     	; 0x45c <__floatsisf+0x1c>
 46c:	fa f4       	brpl	.+62     	; 0x4ac <__stack+0x4d>
 46e:	bb 0f       	add	r27, r27
 470:	11 f4       	brne	.+4      	; 0x476 <__stack+0x17>
 472:	60 ff       	sbrs	r22, 0
 474:	1b c0       	rjmp	.+54     	; 0x4ac <__stack+0x4d>
 476:	6f 5f       	subi	r22, 0xFF	; 255
 478:	7f 4f       	sbci	r23, 0xFF	; 255
 47a:	8f 4f       	sbci	r24, 0xFF	; 255
 47c:	9f 4f       	sbci	r25, 0xFF	; 255
 47e:	16 c0       	rjmp	.+44     	; 0x4ac <__stack+0x4d>
 480:	88 23       	and	r24, r24
 482:	11 f0       	breq	.+4      	; 0x488 <__stack+0x29>
 484:	96 e9       	ldi	r25, 0x96	; 150
 486:	11 c0       	rjmp	.+34     	; 0x4aa <__stack+0x4b>
 488:	77 23       	and	r23, r23
 48a:	21 f0       	breq	.+8      	; 0x494 <__stack+0x35>
 48c:	9e e8       	ldi	r25, 0x8E	; 142
 48e:	87 2f       	mov	r24, r23
 490:	76 2f       	mov	r23, r22
 492:	05 c0       	rjmp	.+10     	; 0x49e <__stack+0x3f>
 494:	66 23       	and	r22, r22
 496:	71 f0       	breq	.+28     	; 0x4b4 <__stack+0x55>
 498:	96 e8       	ldi	r25, 0x86	; 134
 49a:	86 2f       	mov	r24, r22
 49c:	70 e0       	ldi	r23, 0x00	; 0
 49e:	60 e0       	ldi	r22, 0x00	; 0
 4a0:	2a f0       	brmi	.+10     	; 0x4ac <__stack+0x4d>
 4a2:	9a 95       	dec	r25
 4a4:	66 0f       	add	r22, r22
 4a6:	77 1f       	adc	r23, r23
 4a8:	88 1f       	adc	r24, r24
 4aa:	da f7       	brpl	.-10     	; 0x4a2 <__stack+0x43>
 4ac:	88 0f       	add	r24, r24
 4ae:	96 95       	lsr	r25
 4b0:	87 95       	ror	r24
 4b2:	97 f9       	bld	r25, 7
 4b4:	08 95       	ret

000004b6 <__fp_inf>:
 4b6:	97 f9       	bld	r25, 7
 4b8:	9f 67       	ori	r25, 0x7F	; 127
 4ba:	80 e8       	ldi	r24, 0x80	; 128
 4bc:	70 e0       	ldi	r23, 0x00	; 0
 4be:	60 e0       	ldi	r22, 0x00	; 0
 4c0:	08 95       	ret

000004c2 <__fp_nan>:
 4c2:	9f ef       	ldi	r25, 0xFF	; 255
 4c4:	80 ec       	ldi	r24, 0xC0	; 192
 4c6:	08 95       	ret

000004c8 <__fp_pscA>:
 4c8:	00 24       	eor	r0, r0
 4ca:	0a 94       	dec	r0
 4cc:	16 16       	cp	r1, r22
 4ce:	17 06       	cpc	r1, r23
 4d0:	18 06       	cpc	r1, r24
 4d2:	09 06       	cpc	r0, r25
 4d4:	08 95       	ret

000004d6 <__fp_pscB>:
 4d6:	00 24       	eor	r0, r0
 4d8:	0a 94       	dec	r0
 4da:	12 16       	cp	r1, r18
 4dc:	13 06       	cpc	r1, r19
 4de:	14 06       	cpc	r1, r20
 4e0:	05 06       	cpc	r0, r21
 4e2:	08 95       	ret

000004e4 <__fp_round>:
 4e4:	09 2e       	mov	r0, r25
 4e6:	03 94       	inc	r0
 4e8:	00 0c       	add	r0, r0
 4ea:	11 f4       	brne	.+4      	; 0x4f0 <__fp_round+0xc>
 4ec:	88 23       	and	r24, r24
 4ee:	52 f0       	brmi	.+20     	; 0x504 <__fp_round+0x20>
 4f0:	bb 0f       	add	r27, r27
 4f2:	40 f4       	brcc	.+16     	; 0x504 <__fp_round+0x20>
 4f4:	bf 2b       	or	r27, r31
 4f6:	11 f4       	brne	.+4      	; 0x4fc <__fp_round+0x18>
 4f8:	60 ff       	sbrs	r22, 0
 4fa:	04 c0       	rjmp	.+8      	; 0x504 <__fp_round+0x20>
 4fc:	6f 5f       	subi	r22, 0xFF	; 255
 4fe:	7f 4f       	sbci	r23, 0xFF	; 255
 500:	8f 4f       	sbci	r24, 0xFF	; 255
 502:	9f 4f       	sbci	r25, 0xFF	; 255
 504:	08 95       	ret

00000506 <__fp_split3>:
 506:	57 fd       	sbrc	r21, 7
 508:	90 58       	subi	r25, 0x80	; 128
 50a:	44 0f       	add	r20, r20
 50c:	55 1f       	adc	r21, r21
 50e:	59 f0       	breq	.+22     	; 0x526 <__fp_splitA+0x10>
 510:	5f 3f       	cpi	r21, 0xFF	; 255
 512:	71 f0       	breq	.+28     	; 0x530 <__fp_splitA+0x1a>
 514:	47 95       	ror	r20

00000516 <__fp_splitA>:
 516:	88 0f       	add	r24, r24
 518:	97 fb       	bst	r25, 7
 51a:	99 1f       	adc	r25, r25
 51c:	61 f0       	breq	.+24     	; 0x536 <__fp_splitA+0x20>
 51e:	9f 3f       	cpi	r25, 0xFF	; 255
 520:	79 f0       	breq	.+30     	; 0x540 <__fp_splitA+0x2a>
 522:	87 95       	ror	r24
 524:	08 95       	ret
 526:	12 16       	cp	r1, r18
 528:	13 06       	cpc	r1, r19
 52a:	14 06       	cpc	r1, r20
 52c:	55 1f       	adc	r21, r21
 52e:	f2 cf       	rjmp	.-28     	; 0x514 <__fp_split3+0xe>
 530:	46 95       	lsr	r20
 532:	f1 df       	rcall	.-30     	; 0x516 <__fp_splitA>
 534:	08 c0       	rjmp	.+16     	; 0x546 <__fp_splitA+0x30>
 536:	16 16       	cp	r1, r22
 538:	17 06       	cpc	r1, r23
 53a:	18 06       	cpc	r1, r24
 53c:	99 1f       	adc	r25, r25
 53e:	f1 cf       	rjmp	.-30     	; 0x522 <__fp_splitA+0xc>
 540:	86 95       	lsr	r24
 542:	71 05       	cpc	r23, r1
 544:	61 05       	cpc	r22, r1
 546:	08 94       	sec
 548:	08 95       	ret

0000054a <__fp_zero>:
 54a:	e8 94       	clt

0000054c <__fp_szero>:
 54c:	bb 27       	eor	r27, r27
 54e:	66 27       	eor	r22, r22
 550:	77 27       	eor	r23, r23
 552:	cb 01       	movw	r24, r22
 554:	97 f9       	bld	r25, 7
 556:	08 95       	ret

00000558 <__mulsf3>:
 558:	0b d0       	rcall	.+22     	; 0x570 <__mulsf3x>
 55a:	c4 cf       	rjmp	.-120    	; 0x4e4 <__fp_round>
 55c:	b5 df       	rcall	.-150    	; 0x4c8 <__fp_pscA>
 55e:	28 f0       	brcs	.+10     	; 0x56a <__mulsf3+0x12>
 560:	ba df       	rcall	.-140    	; 0x4d6 <__fp_pscB>
 562:	18 f0       	brcs	.+6      	; 0x56a <__mulsf3+0x12>
 564:	95 23       	and	r25, r21
 566:	09 f0       	breq	.+2      	; 0x56a <__mulsf3+0x12>
 568:	a6 cf       	rjmp	.-180    	; 0x4b6 <__fp_inf>
 56a:	ab cf       	rjmp	.-170    	; 0x4c2 <__fp_nan>
 56c:	11 24       	eor	r1, r1
 56e:	ee cf       	rjmp	.-36     	; 0x54c <__fp_szero>

00000570 <__mulsf3x>:
 570:	ca df       	rcall	.-108    	; 0x506 <__fp_split3>
 572:	a0 f3       	brcs	.-24     	; 0x55c <__mulsf3+0x4>

00000574 <__mulsf3_pse>:
 574:	95 9f       	mul	r25, r21
 576:	d1 f3       	breq	.-12     	; 0x56c <__mulsf3+0x14>
 578:	95 0f       	add	r25, r21
 57a:	50 e0       	ldi	r21, 0x00	; 0
 57c:	55 1f       	adc	r21, r21
 57e:	62 9f       	mul	r22, r18
 580:	f0 01       	movw	r30, r0
 582:	72 9f       	mul	r23, r18
 584:	bb 27       	eor	r27, r27
 586:	f0 0d       	add	r31, r0
 588:	b1 1d       	adc	r27, r1
 58a:	63 9f       	mul	r22, r19
 58c:	aa 27       	eor	r26, r26
 58e:	f0 0d       	add	r31, r0
 590:	b1 1d       	adc	r27, r1
 592:	aa 1f       	adc	r26, r26
 594:	64 9f       	mul	r22, r20
 596:	66 27       	eor	r22, r22
 598:	b0 0d       	add	r27, r0
 59a:	a1 1d       	adc	r26, r1
 59c:	66 1f       	adc	r22, r22
 59e:	82 9f       	mul	r24, r18
 5a0:	22 27       	eor	r18, r18
 5a2:	b0 0d       	add	r27, r0
 5a4:	a1 1d       	adc	r26, r1
 5a6:	62 1f       	adc	r22, r18
 5a8:	73 9f       	mul	r23, r19
 5aa:	b0 0d       	add	r27, r0
 5ac:	a1 1d       	adc	r26, r1
 5ae:	62 1f       	adc	r22, r18
 5b0:	83 9f       	mul	r24, r19
 5b2:	a0 0d       	add	r26, r0
 5b4:	61 1d       	adc	r22, r1
 5b6:	22 1f       	adc	r18, r18
 5b8:	74 9f       	mul	r23, r20
 5ba:	33 27       	eor	r19, r19
 5bc:	a0 0d       	add	r26, r0
 5be:	61 1d       	adc	r22, r1
 5c0:	23 1f       	adc	r18, r19
 5c2:	84 9f       	mul	r24, r20
 5c4:	60 0d       	add	r22, r0
 5c6:	21 1d       	adc	r18, r1
 5c8:	82 2f       	mov	r24, r18
 5ca:	76 2f       	mov	r23, r22
 5cc:	6a 2f       	mov	r22, r26
 5ce:	11 24       	eor	r1, r1
 5d0:	9f 57       	subi	r25, 0x7F	; 127
 5d2:	50 40       	sbci	r21, 0x00	; 0
 5d4:	8a f0       	brmi	.+34     	; 0x5f8 <__mulsf3_pse+0x84>
 5d6:	e1 f0       	breq	.+56     	; 0x610 <__mulsf3_pse+0x9c>
 5d8:	88 23       	and	r24, r24
 5da:	4a f0       	brmi	.+18     	; 0x5ee <__mulsf3_pse+0x7a>
 5dc:	ee 0f       	add	r30, r30
 5de:	ff 1f       	adc	r31, r31
 5e0:	bb 1f       	adc	r27, r27
 5e2:	66 1f       	adc	r22, r22
 5e4:	77 1f       	adc	r23, r23
 5e6:	88 1f       	adc	r24, r24
 5e8:	91 50       	subi	r25, 0x01	; 1
 5ea:	50 40       	sbci	r21, 0x00	; 0
 5ec:	a9 f7       	brne	.-22     	; 0x5d8 <__mulsf3_pse+0x64>
 5ee:	9e 3f       	cpi	r25, 0xFE	; 254
 5f0:	51 05       	cpc	r21, r1
 5f2:	70 f0       	brcs	.+28     	; 0x610 <__mulsf3_pse+0x9c>
 5f4:	60 cf       	rjmp	.-320    	; 0x4b6 <__fp_inf>
 5f6:	aa cf       	rjmp	.-172    	; 0x54c <__fp_szero>
 5f8:	5f 3f       	cpi	r21, 0xFF	; 255
 5fa:	ec f3       	brlt	.-6      	; 0x5f6 <__mulsf3_pse+0x82>
 5fc:	98 3e       	cpi	r25, 0xE8	; 232
 5fe:	dc f3       	brlt	.-10     	; 0x5f6 <__mulsf3_pse+0x82>
 600:	86 95       	lsr	r24
 602:	77 95       	ror	r23
 604:	67 95       	ror	r22
 606:	b7 95       	ror	r27
 608:	f7 95       	ror	r31
 60a:	e7 95       	ror	r30
 60c:	9f 5f       	subi	r25, 0xFF	; 255
 60e:	c1 f7       	brne	.-16     	; 0x600 <__mulsf3_pse+0x8c>
 610:	fe 2b       	or	r31, r30
 612:	88 0f       	add	r24, r24
 614:	91 1d       	adc	r25, r1
 616:	96 95       	lsr	r25
 618:	87 95       	ror	r24
 61a:	97 f9       	bld	r25, 7
 61c:	08 95       	ret

0000061e <__udivmodsi4>:
 61e:	a1 e2       	ldi	r26, 0x21	; 33
 620:	1a 2e       	mov	r1, r26
 622:	aa 1b       	sub	r26, r26
 624:	bb 1b       	sub	r27, r27
 626:	fd 01       	movw	r30, r26
 628:	0d c0       	rjmp	.+26     	; 0x644 <__udivmodsi4_ep>

0000062a <__udivmodsi4_loop>:
 62a:	aa 1f       	adc	r26, r26
 62c:	bb 1f       	adc	r27, r27
 62e:	ee 1f       	adc	r30, r30
 630:	ff 1f       	adc	r31, r31
 632:	a2 17       	cp	r26, r18
 634:	b3 07       	cpc	r27, r19
 636:	e4 07       	cpc	r30, r20
 638:	f5 07       	cpc	r31, r21
 63a:	20 f0       	brcs	.+8      	; 0x644 <__udivmodsi4_ep>
 63c:	a2 1b       	sub	r26, r18
 63e:	b3 0b       	sbc	r27, r19
 640:	e4 0b       	sbc	r30, r20
 642:	f5 0b       	sbc	r31, r21

00000644 <__udivmodsi4_ep>:
 644:	66 1f       	adc	r22, r22
 646:	77 1f       	adc	r23, r23
 648:	88 1f       	adc	r24, r24
 64a:	99 1f       	adc	r25, r25
 64c:	1a 94       	dec	r1
 64e:	69 f7       	brne	.-38     	; 0x62a <__udivmodsi4_loop>
 650:	60 95       	com	r22
 652:	70 95       	com	r23
 654:	80 95       	com	r24
 656:	90 95       	com	r25
 658:	9b 01       	movw	r18, r22
 65a:	ac 01       	movw	r20, r24
 65c:	bd 01       	movw	r22, r26
 65e:	cf 01       	movw	r24, r30
 660:	08 95       	ret

00000662 <__udivmodhi4>:
 662:	aa 1b       	sub	r26, r26
 664:	bb 1b       	sub	r27, r27
 666:	51 e1       	ldi	r21, 0x11	; 17
 668:	07 c0       	rjmp	.+14     	; 0x678 <__udivmodhi4_ep>

0000066a <__udivmodhi4_loop>:
 66a:	aa 1f       	adc	r26, r26
 66c:	bb 1f       	adc	r27, r27
 66e:	a6 17       	cp	r26, r22
 670:	b7 07       	cpc	r27, r23
 672:	10 f0       	brcs	.+4      	; 0x678 <__udivmodhi4_ep>
 674:	a6 1b       	sub	r26, r22
 676:	b7 0b       	sbc	r27, r23

00000678 <__udivmodhi4_ep>:
 678:	88 1f       	adc	r24, r24
 67a:	99 1f       	adc	r25, r25
 67c:	5a 95       	dec	r21
 67e:	a9 f7       	brne	.-22     	; 0x66a <__udivmodhi4_loop>
 680:	80 95       	com	r24
 682:	90 95       	com	r25
 684:	bc 01       	movw	r22, r24
 686:	cd 01       	movw	r24, r26
 688:	08 95       	ret

0000068a <swapfunc>:
 68a:	dc 01       	movw	r26, r24
 68c:	fb 01       	movw	r30, r22
 68e:	8c 91       	ld	r24, X
 690:	90 81       	ld	r25, Z
 692:	9d 93       	st	X+, r25
 694:	81 93       	st	Z+, r24
 696:	41 50       	subi	r20, 0x01	; 1
 698:	51 09       	sbc	r21, r1
 69a:	14 16       	cp	r1, r20
 69c:	15 06       	cpc	r1, r21
 69e:	bc f3       	brlt	.-18     	; 0x68e <swapfunc+0x4>
 6a0:	08 95       	ret

000006a2 <med3>:
 6a2:	a0 e0       	ldi	r26, 0x00	; 0
 6a4:	b0 e0       	ldi	r27, 0x00	; 0
 6a6:	e6 e5       	ldi	r30, 0x56	; 86
 6a8:	f3 e0       	ldi	r31, 0x03	; 3
 6aa:	cb c1       	rjmp	.+918    	; 0xa42 <__prologue_saves__+0x14>
 6ac:	7c 01       	movw	r14, r24
 6ae:	6b 01       	movw	r12, r22
 6b0:	d4 2f       	mov	r29, r20
 6b2:	c5 2f       	mov	r28, r21
 6b4:	89 01       	movw	r16, r18
 6b6:	f9 01       	movw	r30, r18
 6b8:	09 95       	icall
 6ba:	6d 2f       	mov	r22, r29
 6bc:	7c 2f       	mov	r23, r28
 6be:	97 ff       	sbrs	r25, 7
 6c0:	10 c0       	rjmp	.+32     	; 0x6e2 <med3+0x40>
 6c2:	c6 01       	movw	r24, r12
 6c4:	f8 01       	movw	r30, r16
 6c6:	09 95       	icall
 6c8:	97 ff       	sbrs	r25, 7
 6ca:	02 c0       	rjmp	.+4      	; 0x6d0 <med3+0x2e>
 6cc:	c6 01       	movw	r24, r12
 6ce:	18 c0       	rjmp	.+48     	; 0x700 <med3+0x5e>
 6d0:	6d 2f       	mov	r22, r29
 6d2:	7c 2f       	mov	r23, r28
 6d4:	c7 01       	movw	r24, r14
 6d6:	f8 01       	movw	r30, r16
 6d8:	09 95       	icall
 6da:	97 fd       	sbrc	r25, 7
 6dc:	0f c0       	rjmp	.+30     	; 0x6fc <med3+0x5a>
 6de:	c7 01       	movw	r24, r14
 6e0:	0f c0       	rjmp	.+30     	; 0x700 <med3+0x5e>
 6e2:	c6 01       	movw	r24, r12
 6e4:	f8 01       	movw	r30, r16
 6e6:	09 95       	icall
 6e8:	18 16       	cp	r1, r24
 6ea:	19 06       	cpc	r1, r25
 6ec:	7c f3       	brlt	.-34     	; 0x6cc <med3+0x2a>
 6ee:	6d 2f       	mov	r22, r29
 6f0:	7c 2f       	mov	r23, r28
 6f2:	c7 01       	movw	r24, r14
 6f4:	f8 01       	movw	r30, r16
 6f6:	09 95       	icall
 6f8:	97 fd       	sbrc	r25, 7
 6fa:	f1 cf       	rjmp	.-30     	; 0x6de <med3+0x3c>
 6fc:	8d 2f       	mov	r24, r29
 6fe:	9c 2f       	mov	r25, r28
 700:	cd b7       	in	r28, 0x3d	; 61
 702:	de b7       	in	r29, 0x3e	; 62
 704:	e8 e0       	ldi	r30, 0x08	; 8
 706:	b9 c1       	rjmp	.+882    	; 0xa7a <__epilogue_restores__+0x14>

00000708 <qsort>:
 708:	aa e0       	ldi	r26, 0x0A	; 10
 70a:	b0 e0       	ldi	r27, 0x00	; 0
 70c:	e9 e8       	ldi	r30, 0x89	; 137
 70e:	f3 e0       	ldi	r31, 0x03	; 3
 710:	8e c1       	rjmp	.+796    	; 0xa2e <__prologue_saves__>
 712:	8c 01       	movw	r16, r24
 714:	7b 01       	movw	r14, r22
 716:	5a 87       	std	Y+10, r21	; 0x0a
 718:	49 87       	std	Y+9, r20	; 0x09
 71a:	69 01       	movw	r12, r18
 71c:	29 85       	ldd	r18, Y+9	; 0x09
 71e:	3a 85       	ldd	r19, Y+10	; 0x0a
 720:	20 0f       	add	r18, r16
 722:	31 1f       	adc	r19, r17
 724:	3a 83       	std	Y+2, r19	; 0x02
 726:	29 83       	std	Y+1, r18	; 0x01
 728:	37 e0       	ldi	r19, 0x07	; 7
 72a:	e3 16       	cp	r14, r19
 72c:	f1 04       	cpc	r15, r1
 72e:	68 f5       	brcc	.+90     	; 0x78a <qsort+0x82>
 730:	69 80       	ldd	r6, Y+1	; 0x01
 732:	7a 80       	ldd	r7, Y+2	; 0x02
 734:	49 85       	ldd	r20, Y+9	; 0x09
 736:	5a 85       	ldd	r21, Y+10	; 0x0a
 738:	e4 9e       	mul	r14, r20
 73a:	50 01       	movw	r10, r0
 73c:	e5 9e       	mul	r14, r21
 73e:	b0 0c       	add	r11, r0
 740:	f4 9e       	mul	r15, r20
 742:	b0 0c       	add	r11, r0
 744:	11 24       	eor	r1, r1
 746:	a0 0e       	add	r10, r16
 748:	b1 1e       	adc	r11, r17
 74a:	6a 14       	cp	r6, r10
 74c:	7b 04       	cpc	r7, r11
 74e:	08 f0       	brcs	.+2      	; 0x752 <qsort+0x4a>
 750:	6b c1       	rjmp	.+726    	; 0xa28 <qsort+0x320>
 752:	73 01       	movw	r14, r6
 754:	0e 15       	cp	r16, r14
 756:	1f 05       	cpc	r17, r15
 758:	28 f0       	brcs	.+10     	; 0x764 <qsort+0x5c>
 75a:	89 85       	ldd	r24, Y+9	; 0x09
 75c:	9a 85       	ldd	r25, Y+10	; 0x0a
 75e:	68 0e       	add	r6, r24
 760:	79 1e       	adc	r7, r25
 762:	f3 cf       	rjmp	.-26     	; 0x74a <qsort+0x42>
 764:	47 01       	movw	r8, r14
 766:	e9 85       	ldd	r30, Y+9	; 0x09
 768:	fa 85       	ldd	r31, Y+10	; 0x0a
 76a:	8e 1a       	sub	r8, r30
 76c:	9f 0a       	sbc	r9, r31
 76e:	b7 01       	movw	r22, r14
 770:	c4 01       	movw	r24, r8
 772:	f6 01       	movw	r30, r12
 774:	09 95       	icall
 776:	18 16       	cp	r1, r24
 778:	19 06       	cpc	r1, r25
 77a:	7c f7       	brge	.-34     	; 0x75a <qsort+0x52>
 77c:	49 85       	ldd	r20, Y+9	; 0x09
 77e:	5a 85       	ldd	r21, Y+10	; 0x0a
 780:	b4 01       	movw	r22, r8
 782:	c7 01       	movw	r24, r14
 784:	82 df       	rcall	.-252    	; 0x68a <swapfunc>
 786:	74 01       	movw	r14, r8
 788:	e5 cf       	rjmp	.-54     	; 0x754 <qsort+0x4c>
 78a:	c7 01       	movw	r24, r14
 78c:	96 95       	lsr	r25
 78e:	87 95       	ror	r24
 790:	29 85       	ldd	r18, Y+9	; 0x09
 792:	3a 85       	ldd	r19, Y+10	; 0x0a
 794:	82 9f       	mul	r24, r18
 796:	50 01       	movw	r10, r0
 798:	83 9f       	mul	r24, r19
 79a:	b0 0c       	add	r11, r0
 79c:	92 9f       	mul	r25, r18
 79e:	b0 0c       	add	r11, r0
 7a0:	11 24       	eor	r1, r1
 7a2:	a0 0e       	add	r10, r16
 7a4:	b1 1e       	adc	r11, r17
 7a6:	a7 01       	movw	r20, r14
 7a8:	41 50       	subi	r20, 0x01	; 1
 7aa:	51 09       	sbc	r21, r1
 7ac:	5c 83       	std	Y+4, r21	; 0x04
 7ae:	4b 83       	std	Y+3, r20	; 0x03
 7b0:	57 e0       	ldi	r21, 0x07	; 7
 7b2:	e5 16       	cp	r14, r21
 7b4:	f1 04       	cpc	r15, r1
 7b6:	09 f4       	brne	.+2      	; 0x7ba <qsort+0xb2>
 7b8:	48 c0       	rjmp	.+144    	; 0x84a <qsort+0x142>
 7ba:	8b 81       	ldd	r24, Y+3	; 0x03
 7bc:	9c 81       	ldd	r25, Y+4	; 0x04
 7be:	82 9f       	mul	r24, r18
 7c0:	30 01       	movw	r6, r0
 7c2:	83 9f       	mul	r24, r19
 7c4:	70 0c       	add	r7, r0
 7c6:	92 9f       	mul	r25, r18
 7c8:	70 0c       	add	r7, r0
 7ca:	11 24       	eor	r1, r1
 7cc:	60 0e       	add	r6, r16
 7ce:	71 1e       	adc	r7, r17
 7d0:	99 e2       	ldi	r25, 0x29	; 41
 7d2:	e9 16       	cp	r14, r25
 7d4:	f1 04       	cpc	r15, r1
 7d6:	90 f1       	brcs	.+100    	; 0x83c <qsort+0x134>
 7d8:	c7 01       	movw	r24, r14
 7da:	43 e0       	ldi	r20, 0x03	; 3
 7dc:	96 95       	lsr	r25
 7de:	87 95       	ror	r24
 7e0:	4a 95       	dec	r20
 7e2:	e1 f7       	brne	.-8      	; 0x7dc <qsort+0xd4>
 7e4:	82 9f       	mul	r24, r18
 7e6:	40 01       	movw	r8, r0
 7e8:	83 9f       	mul	r24, r19
 7ea:	90 0c       	add	r9, r0
 7ec:	92 9f       	mul	r25, r18
 7ee:	90 0c       	add	r9, r0
 7f0:	11 24       	eor	r1, r1
 7f2:	14 01       	movw	r2, r8
 7f4:	22 0c       	add	r2, r2
 7f6:	33 1c       	adc	r3, r3
 7f8:	a8 01       	movw	r20, r16
 7fa:	42 0d       	add	r20, r2
 7fc:	53 1d       	adc	r21, r3
 7fe:	b8 01       	movw	r22, r16
 800:	68 0d       	add	r22, r8
 802:	79 1d       	adc	r23, r9
 804:	96 01       	movw	r18, r12
 806:	c8 01       	movw	r24, r16
 808:	4c df       	rcall	.-360    	; 0x6a2 <med3>
 80a:	2c 01       	movw	r4, r24
 80c:	a5 01       	movw	r20, r10
 80e:	48 0d       	add	r20, r8
 810:	59 1d       	adc	r21, r9
 812:	91 94       	neg	r9
 814:	81 94       	neg	r8
 816:	91 08       	sbc	r9, r1
 818:	96 01       	movw	r18, r12
 81a:	b5 01       	movw	r22, r10
 81c:	c5 01       	movw	r24, r10
 81e:	88 0d       	add	r24, r8
 820:	99 1d       	adc	r25, r9
 822:	3f df       	rcall	.-386    	; 0x6a2 <med3>
 824:	5c 01       	movw	r10, r24
 826:	b3 01       	movw	r22, r6
 828:	68 0d       	add	r22, r8
 82a:	79 1d       	adc	r23, r9
 82c:	96 01       	movw	r18, r12
 82e:	a3 01       	movw	r20, r6
 830:	c3 01       	movw	r24, r6
 832:	82 19       	sub	r24, r2
 834:	93 09       	sbc	r25, r3
 836:	35 df       	rcall	.-406    	; 0x6a2 <med3>
 838:	3c 01       	movw	r6, r24
 83a:	01 c0       	rjmp	.+2      	; 0x83e <qsort+0x136>
 83c:	28 01       	movw	r4, r16
 83e:	96 01       	movw	r18, r12
 840:	a3 01       	movw	r20, r6
 842:	b5 01       	movw	r22, r10
 844:	c2 01       	movw	r24, r4
 846:	2d df       	rcall	.-422    	; 0x6a2 <med3>
 848:	5c 01       	movw	r10, r24
 84a:	49 85       	ldd	r20, Y+9	; 0x09
 84c:	5a 85       	ldd	r21, Y+10	; 0x0a
 84e:	b5 01       	movw	r22, r10
 850:	c8 01       	movw	r24, r16
 852:	1b df       	rcall	.-458    	; 0x68a <swapfunc>
 854:	69 80       	ldd	r6, Y+1	; 0x01
 856:	7a 80       	ldd	r7, Y+2	; 0x02
 858:	2b 81       	ldd	r18, Y+3	; 0x03
 85a:	3c 81       	ldd	r19, Y+4	; 0x04
 85c:	49 85       	ldd	r20, Y+9	; 0x09
 85e:	5a 85       	ldd	r21, Y+10	; 0x0a
 860:	24 9f       	mul	r18, r20
 862:	f0 01       	movw	r30, r0
 864:	25 9f       	mul	r18, r21
 866:	f0 0d       	add	r31, r0
 868:	34 9f       	mul	r19, r20
 86a:	f0 0d       	add	r31, r0
 86c:	11 24       	eor	r1, r1
 86e:	fe 83       	std	Y+6, r31	; 0x06
 870:	ed 83       	std	Y+5, r30	; 0x05
 872:	5f 01       	movw	r10, r30
 874:	a0 0e       	add	r10, r16
 876:	b1 1e       	adc	r11, r17
 878:	46 0d       	add	r20, r6
 87a:	57 1d       	adc	r21, r7
 87c:	5c 83       	std	Y+4, r21	; 0x04
 87e:	4b 83       	std	Y+3, r20	; 0x03
 880:	25 01       	movw	r4, r10
 882:	13 01       	movw	r2, r6
 884:	1a 82       	std	Y+2, r1	; 0x02
 886:	19 82       	std	Y+1, r1	; 0x01
 888:	8b 80       	ldd	r8, Y+3	; 0x03
 88a:	9c 80       	ldd	r9, Y+4	; 0x04
 88c:	89 85       	ldd	r24, Y+9	; 0x09
 88e:	9a 85       	ldd	r25, Y+10	; 0x0a
 890:	88 1a       	sub	r8, r24
 892:	99 0a       	sbc	r9, r25
 894:	a8 14       	cp	r10, r8
 896:	b9 04       	cpc	r11, r9
 898:	08 f4       	brcc	.+2      	; 0x89c <qsort+0x194>
 89a:	4d c0       	rjmp	.+154    	; 0x936 <qsort+0x22e>
 89c:	b8 01       	movw	r22, r16
 89e:	c4 01       	movw	r24, r8
 8a0:	f6 01       	movw	r30, r12
 8a2:	09 95       	icall
 8a4:	18 16       	cp	r1, r24
 8a6:	19 06       	cpc	r1, r25
 8a8:	b4 f1       	brlt	.+108    	; 0x916 <qsort+0x20e>
 8aa:	89 2b       	or	r24, r25
 8ac:	69 f4       	brne	.+26     	; 0x8c8 <qsort+0x1c0>
 8ae:	49 85       	ldd	r20, Y+9	; 0x09
 8b0:	5a 85       	ldd	r21, Y+10	; 0x0a
 8b2:	b4 01       	movw	r22, r8
 8b4:	c1 01       	movw	r24, r2
 8b6:	e9 de       	rcall	.-558    	; 0x68a <swapfunc>
 8b8:	89 85       	ldd	r24, Y+9	; 0x09
 8ba:	9a 85       	ldd	r25, Y+10	; 0x0a
 8bc:	28 0e       	add	r2, r24
 8be:	39 1e       	adc	r3, r25
 8c0:	e1 e0       	ldi	r30, 0x01	; 1
 8c2:	f0 e0       	ldi	r31, 0x00	; 0
 8c4:	fa 83       	std	Y+2, r31	; 0x02
 8c6:	e9 83       	std	Y+1, r30	; 0x01
 8c8:	2b 81       	ldd	r18, Y+3	; 0x03
 8ca:	3c 81       	ldd	r19, Y+4	; 0x04
 8cc:	49 85       	ldd	r20, Y+9	; 0x09
 8ce:	5a 85       	ldd	r21, Y+10	; 0x0a
 8d0:	24 0f       	add	r18, r20
 8d2:	35 1f       	adc	r19, r21
 8d4:	3c 83       	std	Y+4, r19	; 0x04
 8d6:	2b 83       	std	Y+3, r18	; 0x03
 8d8:	d7 cf       	rjmp	.-82     	; 0x888 <qsort+0x180>
 8da:	b8 01       	movw	r22, r16
 8dc:	c5 01       	movw	r24, r10
 8de:	f6 01       	movw	r30, r12
 8e0:	09 95       	icall
 8e2:	95 01       	movw	r18, r10
 8e4:	49 85       	ldd	r20, Y+9	; 0x09
 8e6:	5a 85       	ldd	r21, Y+10	; 0x0a
 8e8:	24 1b       	sub	r18, r20
 8ea:	35 0b       	sbc	r19, r21
 8ec:	38 87       	std	Y+8, r19	; 0x08
 8ee:	2f 83       	std	Y+7, r18	; 0x07
 8f0:	97 fd       	sbrc	r25, 7
 8f2:	15 c0       	rjmp	.+42     	; 0x91e <qsort+0x216>
 8f4:	89 2b       	or	r24, r25
 8f6:	69 f4       	brne	.+26     	; 0x912 <qsort+0x20a>
 8f8:	49 85       	ldd	r20, Y+9	; 0x09
 8fa:	5a 85       	ldd	r21, Y+10	; 0x0a
 8fc:	b2 01       	movw	r22, r4
 8fe:	c5 01       	movw	r24, r10
 900:	c4 de       	rcall	.-632    	; 0x68a <swapfunc>
 902:	29 85       	ldd	r18, Y+9	; 0x09
 904:	3a 85       	ldd	r19, Y+10	; 0x0a
 906:	42 1a       	sub	r4, r18
 908:	53 0a       	sbc	r5, r19
 90a:	41 e0       	ldi	r20, 0x01	; 1
 90c:	50 e0       	ldi	r21, 0x00	; 0
 90e:	5a 83       	std	Y+2, r21	; 0x02
 910:	49 83       	std	Y+1, r20	; 0x01
 912:	af 80       	ldd	r10, Y+7	; 0x07
 914:	b8 84       	ldd	r11, Y+8	; 0x08
 916:	a8 14       	cp	r10, r8
 918:	b9 04       	cpc	r11, r9
 91a:	f8 f6       	brcc	.-66     	; 0x8da <qsort+0x1d2>
 91c:	0c c0       	rjmp	.+24     	; 0x936 <qsort+0x22e>
 91e:	49 85       	ldd	r20, Y+9	; 0x09
 920:	5a 85       	ldd	r21, Y+10	; 0x0a
 922:	b5 01       	movw	r22, r10
 924:	c4 01       	movw	r24, r8
 926:	b1 de       	rcall	.-670    	; 0x68a <swapfunc>
 928:	af 80       	ldd	r10, Y+7	; 0x07
 92a:	b8 84       	ldd	r11, Y+8	; 0x08
 92c:	41 e0       	ldi	r20, 0x01	; 1
 92e:	50 e0       	ldi	r21, 0x00	; 0
 930:	5a 83       	std	Y+2, r21	; 0x02
 932:	49 83       	std	Y+1, r20	; 0x01
 934:	c9 cf       	rjmp	.-110    	; 0x8c8 <qsort+0x1c0>
 936:	89 81       	ldd	r24, Y+1	; 0x01
 938:	9a 81       	ldd	r25, Y+2	; 0x02
 93a:	89 2b       	or	r24, r25
 93c:	09 f4       	brne	.+2      	; 0x940 <qsort+0x238>
 93e:	4a c0       	rjmp	.+148    	; 0x9d4 <qsort+0x2cc>
 940:	6d 80       	ldd	r6, Y+5	; 0x05
 942:	7e 80       	ldd	r7, Y+6	; 0x06
 944:	29 85       	ldd	r18, Y+9	; 0x09
 946:	3a 85       	ldd	r19, Y+10	; 0x0a
 948:	62 0e       	add	r6, r18
 94a:	73 1e       	adc	r7, r19
 94c:	60 0e       	add	r6, r16
 94e:	71 1e       	adc	r7, r17
 950:	74 01       	movw	r14, r8
 952:	e2 18       	sub	r14, r2
 954:	f3 08       	sbc	r15, r3
 956:	a1 01       	movw	r20, r2
 958:	40 1b       	sub	r20, r16
 95a:	51 0b       	sbc	r21, r17
 95c:	e4 16       	cp	r14, r20
 95e:	f5 06       	cpc	r15, r21
 960:	0c f4       	brge	.+2      	; 0x964 <qsort+0x25c>
 962:	a7 01       	movw	r20, r14
 964:	14 16       	cp	r1, r20
 966:	15 06       	cpc	r1, r21
 968:	2c f4       	brge	.+10     	; 0x974 <qsort+0x26c>
 96a:	b4 01       	movw	r22, r8
 96c:	64 1b       	sub	r22, r20
 96e:	75 0b       	sbc	r23, r21
 970:	c8 01       	movw	r24, r16
 972:	8b de       	rcall	.-746    	; 0x68a <swapfunc>
 974:	a2 01       	movw	r20, r4
 976:	4a 19       	sub	r20, r10
 978:	5b 09       	sbc	r21, r11
 97a:	5a 01       	movw	r10, r20
 97c:	a3 01       	movw	r20, r6
 97e:	44 19       	sub	r20, r4
 980:	55 09       	sbc	r21, r5
 982:	89 85       	ldd	r24, Y+9	; 0x09
 984:	9a 85       	ldd	r25, Y+10	; 0x0a
 986:	48 1b       	sub	r20, r24
 988:	59 0b       	sbc	r21, r25
 98a:	a4 16       	cp	r10, r20
 98c:	b5 06       	cpc	r11, r21
 98e:	08 f4       	brcc	.+2      	; 0x992 <qsort+0x28a>
 990:	a5 01       	movw	r20, r10
 992:	14 16       	cp	r1, r20
 994:	15 06       	cpc	r1, r21
 996:	2c f4       	brge	.+10     	; 0x9a2 <qsort+0x29a>
 998:	b3 01       	movw	r22, r6
 99a:	64 1b       	sub	r22, r20
 99c:	75 0b       	sbc	r23, r21
 99e:	c4 01       	movw	r24, r8
 9a0:	74 de       	rcall	.-792    	; 0x68a <swapfunc>
 9a2:	e9 85       	ldd	r30, Y+9	; 0x09
 9a4:	fa 85       	ldd	r31, Y+10	; 0x0a
 9a6:	ee 15       	cp	r30, r14
 9a8:	ff 05       	cpc	r31, r15
 9aa:	38 f4       	brcc	.+14     	; 0x9ba <qsort+0x2b2>
 9ac:	c7 01       	movw	r24, r14
 9ae:	bf 01       	movw	r22, r30
 9b0:	58 de       	rcall	.-848    	; 0x662 <__udivmodhi4>
 9b2:	96 01       	movw	r18, r12
 9b4:	af 01       	movw	r20, r30
 9b6:	c8 01       	movw	r24, r16
 9b8:	a7 de       	rcall	.-690    	; 0x708 <qsort>
 9ba:	29 85       	ldd	r18, Y+9	; 0x09
 9bc:	3a 85       	ldd	r19, Y+10	; 0x0a
 9be:	2a 15       	cp	r18, r10
 9c0:	3b 05       	cpc	r19, r11
 9c2:	90 f5       	brcc	.+100    	; 0xa28 <qsort+0x320>
 9c4:	83 01       	movw	r16, r6
 9c6:	0a 19       	sub	r16, r10
 9c8:	1b 09       	sbc	r17, r11
 9ca:	c5 01       	movw	r24, r10
 9cc:	b9 01       	movw	r22, r18
 9ce:	49 de       	rcall	.-878    	; 0x662 <__udivmodhi4>
 9d0:	7b 01       	movw	r14, r22
 9d2:	a4 ce       	rjmp	.-696    	; 0x71c <qsort+0x14>
 9d4:	e9 85       	ldd	r30, Y+9	; 0x09
 9d6:	fa 85       	ldd	r31, Y+10	; 0x0a
 9d8:	ee 9e       	mul	r14, r30
 9da:	50 01       	movw	r10, r0
 9dc:	ef 9e       	mul	r14, r31
 9de:	b0 0c       	add	r11, r0
 9e0:	fe 9e       	mul	r15, r30
 9e2:	b0 0c       	add	r11, r0
 9e4:	11 24       	eor	r1, r1
 9e6:	a0 0e       	add	r10, r16
 9e8:	b1 1e       	adc	r11, r17
 9ea:	6a 14       	cp	r6, r10
 9ec:	7b 04       	cpc	r7, r11
 9ee:	e0 f4       	brcc	.+56     	; 0xa28 <qsort+0x320>
 9f0:	73 01       	movw	r14, r6
 9f2:	0e 15       	cp	r16, r14
 9f4:	1f 05       	cpc	r17, r15
 9f6:	28 f0       	brcs	.+10     	; 0xa02 <qsort+0x2fa>
 9f8:	89 85       	ldd	r24, Y+9	; 0x09
 9fa:	9a 85       	ldd	r25, Y+10	; 0x0a
 9fc:	68 0e       	add	r6, r24
 9fe:	79 1e       	adc	r7, r25
 a00:	f4 cf       	rjmp	.-24     	; 0x9ea <qsort+0x2e2>
 a02:	47 01       	movw	r8, r14
 a04:	e9 85       	ldd	r30, Y+9	; 0x09
 a06:	fa 85       	ldd	r31, Y+10	; 0x0a
 a08:	8e 1a       	sub	r8, r30
 a0a:	9f 0a       	sbc	r9, r31
 a0c:	b7 01       	movw	r22, r14
 a0e:	c4 01       	movw	r24, r8
 a10:	f6 01       	movw	r30, r12
 a12:	09 95       	icall
 a14:	18 16       	cp	r1, r24
 a16:	19 06       	cpc	r1, r25
 a18:	7c f7       	brge	.-34     	; 0x9f8 <qsort+0x2f0>
 a1a:	49 85       	ldd	r20, Y+9	; 0x09
 a1c:	5a 85       	ldd	r21, Y+10	; 0x0a
 a1e:	b4 01       	movw	r22, r8
 a20:	c7 01       	movw	r24, r14
 a22:	33 de       	rcall	.-922    	; 0x68a <swapfunc>
 a24:	74 01       	movw	r14, r8
 a26:	e5 cf       	rjmp	.-54     	; 0x9f2 <qsort+0x2ea>
 a28:	2a 96       	adiw	r28, 0x0a	; 10
 a2a:	e2 e1       	ldi	r30, 0x12	; 18
 a2c:	1c c0       	rjmp	.+56     	; 0xa66 <__epilogue_restores__>

00000a2e <__prologue_saves__>:
 a2e:	2f 92       	push	r2
 a30:	3f 92       	push	r3
 a32:	4f 92       	push	r4
 a34:	5f 92       	push	r5
 a36:	6f 92       	push	r6
 a38:	7f 92       	push	r7
 a3a:	8f 92       	push	r8
 a3c:	9f 92       	push	r9
 a3e:	af 92       	push	r10
 a40:	bf 92       	push	r11
 a42:	cf 92       	push	r12
 a44:	df 92       	push	r13
 a46:	ef 92       	push	r14
 a48:	ff 92       	push	r15
 a4a:	0f 93       	push	r16
 a4c:	1f 93       	push	r17
 a4e:	cf 93       	push	r28
 a50:	df 93       	push	r29
 a52:	cd b7       	in	r28, 0x3d	; 61
 a54:	de b7       	in	r29, 0x3e	; 62
 a56:	ca 1b       	sub	r28, r26
 a58:	db 0b       	sbc	r29, r27
 a5a:	0f b6       	in	r0, 0x3f	; 63
 a5c:	f8 94       	cli
 a5e:	de bf       	out	0x3e, r29	; 62
 a60:	0f be       	out	0x3f, r0	; 63
 a62:	cd bf       	out	0x3d, r28	; 61
 a64:	09 94       	ijmp

00000a66 <__epilogue_restores__>:
 a66:	2a 88       	ldd	r2, Y+18	; 0x12
 a68:	39 88       	ldd	r3, Y+17	; 0x11
 a6a:	48 88       	ldd	r4, Y+16	; 0x10
 a6c:	5f 84       	ldd	r5, Y+15	; 0x0f
 a6e:	6e 84       	ldd	r6, Y+14	; 0x0e
 a70:	7d 84       	ldd	r7, Y+13	; 0x0d
 a72:	8c 84       	ldd	r8, Y+12	; 0x0c
 a74:	9b 84       	ldd	r9, Y+11	; 0x0b
 a76:	aa 84       	ldd	r10, Y+10	; 0x0a
 a78:	b9 84       	ldd	r11, Y+9	; 0x09
 a7a:	c8 84       	ldd	r12, Y+8	; 0x08
 a7c:	df 80       	ldd	r13, Y+7	; 0x07
 a7e:	ee 80       	ldd	r14, Y+6	; 0x06
 a80:	fd 80       	ldd	r15, Y+5	; 0x05
 a82:	0c 81       	ldd	r16, Y+4	; 0x04
 a84:	1b 81       	ldd	r17, Y+3	; 0x03
 a86:	aa 81       	ldd	r26, Y+2	; 0x02
 a88:	b9 81       	ldd	r27, Y+1	; 0x01
 a8a:	ce 0f       	add	r28, r30
 a8c:	d1 1d       	adc	r29, r1
 a8e:	0f b6       	in	r0, 0x3f	; 63
 a90:	f8 94       	cli
 a92:	de bf       	out	0x3e, r29	; 62
 a94:	0f be       	out	0x3f, r0	; 63
 a96:	cd bf       	out	0x3d, r28	; 61
 a98:	ed 01       	movw	r28, r26
 a9a:	08 95       	ret

00000a9c <_exit>:
 a9c:	f8 94       	cli

00000a9e <__stop_program>:
 a9e:	ff cf       	rjmp	.-2      	; 0xa9e <__stop_program>
