
test_16_2_lcd.elf:     file format elf32-avr

Sections:
Idx Name          Size      VMA       LMA       File off  Algn
  0 .text         00000114  00000000  00000000  00000074  2**1
                  CONTENTS, ALLOC, LOAD, READONLY, CODE
  1 .data         0000001c  00800060  00000114  00000188  2**0
                  CONTENTS, ALLOC, LOAD, DATA
  2 .comment      00000030  00000000  00000000  000001a4  2**0
                  CONTENTS, READONLY
  3 .note.gnu.avr.deviceinfo 0000003c  00000000  00000000  000001d4  2**2
                  CONTENTS, READONLY
  4 .debug_aranges 00000050  00000000  00000000  00000210  2**0
                  CONTENTS, READONLY, DEBUGGING
  5 .debug_info   000008e7  00000000  00000000  00000260  2**0
                  CONTENTS, READONLY, DEBUGGING
  6 .debug_abbrev 000005e5  00000000  00000000  00000b47  2**0
                  CONTENTS, READONLY, DEBUGGING
  7 .debug_line   0000039b  00000000  00000000  0000112c  2**0
                  CONTENTS, READONLY, DEBUGGING
  8 .debug_frame  000000a4  00000000  00000000  000014c8  2**2
                  CONTENTS, READONLY, DEBUGGING
  9 .debug_str    00000367  00000000  00000000  0000156c  2**0
                  CONTENTS, READONLY, DEBUGGING
 10 .debug_loc    00000352  00000000  00000000  000018d3  2**0
                  CONTENTS, READONLY, DEBUGGING
 11 .debug_ranges 00000040  00000000  00000000  00001c25  2**0
                  CONTENTS, READONLY, DEBUGGING

Disassembly of section .text:

00000000 <__vectors>:
   0:	12 c0       	rjmp	.+36     	; 0x26 <__ctors_end>
   2:	24 c0       	rjmp	.+72     	; 0x4c <__bad_interrupt>
   4:	23 c0       	rjmp	.+70     	; 0x4c <__bad_interrupt>
   6:	22 c0       	rjmp	.+68     	; 0x4c <__bad_interrupt>
   8:	21 c0       	rjmp	.+66     	; 0x4c <__bad_interrupt>
   a:	20 c0       	rjmp	.+64     	; 0x4c <__bad_interrupt>
   c:	1f c0       	rjmp	.+62     	; 0x4c <__bad_interrupt>
   e:	1e c0       	rjmp	.+60     	; 0x4c <__bad_interrupt>
  10:	1d c0       	rjmp	.+58     	; 0x4c <__bad_interrupt>
  12:	1c c0       	rjmp	.+56     	; 0x4c <__bad_interrupt>
  14:	1b c0       	rjmp	.+54     	; 0x4c <__bad_interrupt>
  16:	1a c0       	rjmp	.+52     	; 0x4c <__bad_interrupt>
  18:	19 c0       	rjmp	.+50     	; 0x4c <__bad_interrupt>
  1a:	18 c0       	rjmp	.+48     	; 0x4c <__bad_interrupt>
  1c:	17 c0       	rjmp	.+46     	; 0x4c <__bad_interrupt>
  1e:	16 c0       	rjmp	.+44     	; 0x4c <__bad_interrupt>
  20:	15 c0       	rjmp	.+42     	; 0x4c <__bad_interrupt>
  22:	14 c0       	rjmp	.+40     	; 0x4c <__bad_interrupt>
  24:	13 c0       	rjmp	.+38     	; 0x4c <__bad_interrupt>

00000026 <__ctors_end>:
  26:	11 24       	eor	r1, r1
  28:	1f be       	out	0x3f, r1	; 63
  2a:	cf e5       	ldi	r28, 0x5F	; 95
  2c:	d4 e0       	ldi	r29, 0x04	; 4
  2e:	de bf       	out	0x3e, r29	; 62
  30:	cd bf       	out	0x3d, r28	; 61

00000032 <__do_copy_data>:
  32:	10 e0       	ldi	r17, 0x00	; 0
  34:	a0 e6       	ldi	r26, 0x60	; 96
  36:	b0 e0       	ldi	r27, 0x00	; 0
  38:	e4 e1       	ldi	r30, 0x14	; 20
  3a:	f1 e0       	ldi	r31, 0x01	; 1
  3c:	02 c0       	rjmp	.+4      	; 0x42 <__SREG__+0x3>
  3e:	05 90       	lpm	r0, Z+
  40:	0d 92       	st	X+, r0
  42:	ac 37       	cpi	r26, 0x7C	; 124
  44:	b1 07       	cpc	r27, r17
  46:	d9 f7       	brne	.-10     	; 0x3e <__SP_H__>
  48:	57 d0       	rcall	.+174    	; 0xf8 <main>
  4a:	62 c0       	rjmp	.+196    	; 0x110 <_exit>

0000004c <__bad_interrupt>:
  4c:	d9 cf       	rjmp	.-78     	; 0x0 <__vectors>

0000004e <LCD_Command>:
}

void LCD_Clear()
{
	LCD_Command (0x01);		/* clear display */
	LCD_Command (0x80);		/* cursor at home position */
  4e:	88 bb       	out	0x18, r24	; 24
  50:	85 b3       	in	r24, 0x15	; 21
  52:	8e 7f       	andi	r24, 0xFE	; 254
  54:	85 bb       	out	0x15, r24	; 21
  56:	85 b3       	in	r24, 0x15	; 21
  58:	8d 7f       	andi	r24, 0xFD	; 253
  5a:	85 bb       	out	0x15, r24	; 21
  5c:	85 b3       	in	r24, 0x15	; 21
  5e:	84 60       	ori	r24, 0x04	; 4
  60:	85 bb       	out	0x15, r24	; 21
  62:	00 c0       	rjmp	.+0      	; 0x64 <LCD_Command+0x16>
  64:	00 c0       	rjmp	.+0      	; 0x66 <LCD_Command+0x18>
  66:	85 b3       	in	r24, 0x15	; 21
  68:	8b 7f       	andi	r24, 0xFB	; 251
  6a:	85 bb       	out	0x15, r24	; 21
  6c:	87 eb       	ldi	r24, 0xB7	; 183
  6e:	9b e0       	ldi	r25, 0x0B	; 11
  70:	01 97       	sbiw	r24, 0x01	; 1
  72:	f1 f7       	brne	.-4      	; 0x70 <LCD_Command+0x22>
  74:	00 c0       	rjmp	.+0      	; 0x76 <LCD_Command+0x28>
  76:	00 00       	nop
  78:	08 95       	ret

0000007a <LCD_Char>:
  7a:	88 bb       	out	0x18, r24	; 24
  7c:	85 b3       	in	r24, 0x15	; 21
  7e:	81 60       	ori	r24, 0x01	; 1
  80:	85 bb       	out	0x15, r24	; 21
  82:	85 b3       	in	r24, 0x15	; 21
  84:	8d 7f       	andi	r24, 0xFD	; 253
  86:	85 bb       	out	0x15, r24	; 21
  88:	85 b3       	in	r24, 0x15	; 21
  8a:	84 60       	ori	r24, 0x04	; 4
  8c:	85 bb       	out	0x15, r24	; 21
  8e:	00 c0       	rjmp	.+0      	; 0x90 <LCD_Char+0x16>
  90:	00 c0       	rjmp	.+0      	; 0x92 <LCD_Char+0x18>
  92:	85 b3       	in	r24, 0x15	; 21
  94:	8b 7f       	andi	r24, 0xFB	; 251
  96:	85 bb       	out	0x15, r24	; 21
  98:	87 ee       	ldi	r24, 0xE7	; 231
  9a:	93 e0       	ldi	r25, 0x03	; 3
  9c:	01 97       	sbiw	r24, 0x01	; 1
  9e:	f1 f7       	brne	.-4      	; 0x9c <LCD_Char+0x22>
  a0:	00 c0       	rjmp	.+0      	; 0xa2 <LCD_Char+0x28>
  a2:	00 00       	nop
  a4:	08 95       	ret

000000a6 <LCD_Init>:
  a6:	8f ef       	ldi	r24, 0xFF	; 255
  a8:	84 bb       	out	0x14, r24	; 20
  aa:	87 bb       	out	0x17, r24	; 23
  ac:	8f e1       	ldi	r24, 0x1F	; 31
  ae:	9e e4       	ldi	r25, 0x4E	; 78
  b0:	01 97       	sbiw	r24, 0x01	; 1
  b2:	f1 f7       	brne	.-4      	; 0xb0 <LCD_Init+0xa>
  b4:	00 c0       	rjmp	.+0      	; 0xb6 <LCD_Init+0x10>
  b6:	00 00       	nop
  b8:	88 e3       	ldi	r24, 0x38	; 56
  ba:	c9 df       	rcall	.-110    	; 0x4e <LCD_Command>
  bc:	8c e0       	ldi	r24, 0x0C	; 12
  be:	c7 df       	rcall	.-114    	; 0x4e <LCD_Command>
  c0:	86 e0       	ldi	r24, 0x06	; 6
  c2:	c5 df       	rcall	.-118    	; 0x4e <LCD_Command>
  c4:	81 e0       	ldi	r24, 0x01	; 1
  c6:	c3 df       	rcall	.-122    	; 0x4e <LCD_Command>
  c8:	80 e8       	ldi	r24, 0x80	; 128
  ca:	c1 df       	rcall	.-126    	; 0x4e <LCD_Command>
  cc:	08 95       	ret

000000ce <LCD_String>:
  ce:	0f 93       	push	r16
  d0:	1f 93       	push	r17
  d2:	cf 93       	push	r28
  d4:	df 93       	push	r29
  d6:	8c 01       	movw	r16, r24
  d8:	c0 e0       	ldi	r28, 0x00	; 0
  da:	d0 e0       	ldi	r29, 0x00	; 0
  dc:	02 c0       	rjmp	.+4      	; 0xe2 <LCD_String+0x14>
  de:	cd df       	rcall	.-102    	; 0x7a <LCD_Char>
  e0:	21 96       	adiw	r28, 0x01	; 1
  e2:	f8 01       	movw	r30, r16
  e4:	ec 0f       	add	r30, r28
  e6:	fd 1f       	adc	r31, r29
  e8:	80 81       	ld	r24, Z
  ea:	81 11       	cpse	r24, r1
  ec:	f8 cf       	rjmp	.-16     	; 0xde <LCD_String+0x10>
  ee:	df 91       	pop	r29
  f0:	cf 91       	pop	r28
  f2:	1f 91       	pop	r17
  f4:	0f 91       	pop	r16
  f6:	08 95       	ret

000000f8 <main>:
}

int main()
{

	LCD_Init();			/* Initialize LCD */
  f8:	d6 df       	rcall	.-84     	; 0xa6 <LCD_Init>

	LCD_String("ElectronicWINGS");	/* write string on 1st line of LCD*/
  fa:	80 e6       	ldi	r24, 0x60	; 96
  fc:	90 e0       	ldi	r25, 0x00	; 0
  fe:	e7 df       	rcall	.-50     	; 0xce <LCD_String>
	LCD_Command(0xC0);		/* Go to 2nd line*/
 100:	80 ec       	ldi	r24, 0xC0	; 192
 102:	a5 df       	rcall	.-182    	; 0x4e <LCD_Command>
	LCD_String("Hello World");	/* Write string on 2nd line*/
 104:	80 e7       	ldi	r24, 0x70	; 112
 106:	90 e0       	ldi	r25, 0x00	; 0
 108:	e2 df       	rcall	.-60     	; 0xce <LCD_String>

	return 0;
 10a:	80 e0       	ldi	r24, 0x00	; 0
 10c:	90 e0       	ldi	r25, 0x00	; 0
 10e:	08 95       	ret

00000110 <_exit>:
 110:	f8 94       	cli

00000112 <__stop_program>:
 112:	ff cf       	rjmp	.-2      	; 0x112 <__stop_program>
